(lp0
I-1
aI-1
aI-1
aI-1
aI-1
aI-1
aI-1
aI-1
aI-1
aI-1
aI-1
aI-1
aI-1
aI-1
aI-1
aI-1
aI-1
aI-1
aI-1
aI-1
aI-1
aI-1
aI-1
aI-1
aI-1
aI-1
aI-1
aI-1
aI-1
aI-1
aI-1
aI-1
aI-1
aI-1
aI-1
aI-1
aI-1
aI-1
aI-1
aI-1
aI-1
aI-1
aI-1
aI-1
aI-1
aI-1
aI-1
aI-1
aI-1
aI-1
aI-1
aI-1
aI-1
aI-1
aI-1
aI-1
aI-1
aI-1
aI-1
aI-1
aI-1
aI-1
aI-1
aI-1
aI-1
aI-1
aI-1
aI-1
aI-1
aI-1
aI-1
aI-1
aI-1
aI-1
aI-1
aI-1
aI-1
aI-1
aI-1
aI-1
aI-1
aI-1
aI-1
aI-1
aI-1
aI-1
aI-1
aI-1
aI-1
aI-1
aI-1
aI-1
aI-1
aI-1
aI-1
aI-1
aI-1
aI-1
aI-1
aI-1
aI-1
aI-1
aI-1
aI-1
aI-1
aI-1
aI-1
aI-1
aI-1
aI-1
aI-1
aI-1
aI-1
aI-1
aI-1
aI-1
aI-1
aI-1
aI-1
aI-1
aI-1
aI-1
aI-1
aI-1
aI-1
aI-1
aI-1
aI-1
aI-1
aI-1
aI-1
aI-1
aI-1
aI-1
aI-1
aI-1
aI-1
aI-1
aI-1
aI-1
aI-1
aI-1
aI-1
aI-1
aI-1
aI-1
aI-1
aI-1
aI-1
aI-1
aI-1
aI-1
aI-1
aI-1
aI-1
aI-1
aI-1
aI-1
aI-1
aI-1
aI-1
aI-1
aI-1
aI-1
aI-1
aI-1
aI-1
aI-1
aI-1
aI-1
aI-1
aI-1
aI-1
aI-1
aI-1
aI-1
aI-1
aI-1
aI-1
aI-1
aI-1
aI-1
aI-1
aI-1
aI-1
aI-1
aI-1
aI-1
aI-1
aI-1
aI-1
aI-1
aI-1
aI-1
aI-1
aI-1
aI-1
aI-1
aI-1
aI-1
aI-1
aI-1
aI-1
aI-1
aI-1
aI-1
aI-1
aI-1
aI-1
aI-1
aI-1
aI-1
aI-1
aI-1
aI-1
aI-1
aI-1
aI-1
aI-1
aI-1
aI-1
aI-1
aI-1
aI-1
aI-1
aI-1
aI-1
aI-1
aI-1
aI-1
aI-1
aI-1
aI-1
aI-1
aI-1
aI-1
aI-1
aI-1
aI-1
aI-1
aI-1
aI-1
aI-1
aI-1
aI-1
aI-1
aI-1
aI-1
aI-1
aI-1
aI-1
aI-1
aI-1
aI-1
aI-1
aI-1
aI-1
aI-1
aI-1
aI-1
aI-1
aI-1
aI-1
aI-1
aI-1
aI-1
aI-1
aI-1
aI-1
aI-1
aI-1
aI-1
aI-1
aI-1
aI-1
aI-1
aI-1
aI-1
aI-1
aI-1
aI-1
aI-1
aI-1
aI-1
aI-1
aI-1
aI-1
aI-1
aI-1
aI-1
aI-1
aI-1
aI-1
aI-1
aI-1
aI-1
aI-1
aI-1
aI-1
aI-1
aI-1
aI-1
aI-1
aI-1
aI-1
aI-1
aI-1
aI-1
aI-1
aI-1
aI-1
aI-1
aI-1
aI-1
aI-1
aI-1
aI-1
aI-1
aI-1
aI-1
aI-1
aI-1
aI-1
aI-1
aI-1
aI-1
aI-1
aI-1
aI-1
aI-1
aI-1
aI-1
aI-1
aI-1
aI-1
aI-1
aI-1
aI-1
aI-1
aI-1
aI-1
aI-1
aI-1
aI-1
aI-1
aI-1
aI-1
aI-1
aI-1
aI-1
aI-1
aI-1
aI-1
aI-1
aI-1
aI-1
aI-1
aI-1
aI-1
aI-1
aI-1
aI-1
aI-1
aI-1
aI-1
aI-1
aI-1
aI-1
aI-1
aI-1
aI-1
aI-1
aI-1
aI-1
aI-1
aI-1
aI-1
aI-1
aI-1
aI-1
aI-1
aI-1
aI-1
aI-1
aI-1
aI-1
aI-1
aI-1
aI-1
aI-1
aI-1
aI-1
aI-1
aI-1
aI-1
aI-1
aI-1
aI-1
aI-1
aI-1
aI-1
aI-1
aI-1
aI-1
aI-1
aI-1
aI-1
aI-1
aI-1
aI-1
aI-1
aI-1
aI-1
aI-1
aI-1
aI-1
aI-1
aI-1
aF-0.9
aI-1
aI-1
aI-1
aI-1
aI-1
aI-1
aF-0.9
aI-1
aI-1
aI-1
aI-1
aI-1
aI-1
aI-1
aI-1
aI-1
aI-1
aI-1
aI-1
aI-1
aI-1
aI-1
aI-1
aI-1
aI-1
aI-1
aI-1
aI-1
aI-1
aI-1
aI-1
aI-1
aI-1
aI-1
aI-1
aI-1
aI-1
aI-1
aF-0.9
aF-0.9
aI-1
aI-1
aI-1
aF-0.9
aI-1
aF-0.9
aI-1
aI-1
aI-1
aI-1
aF-0.9
aI-1
aI-1
aI-1
aI-1
aI-1
aI-1
aI-1
aI-1
aI-1
aI-1
aI-1
aI-1
aI-1
aI-1
aI-1
aI-1
aI-1
aI-1
aI-1
aI-1
aI-1
aI-1
aI-1
aI-1
aI-1
aI-1
aI-1
aI-1
aI-1
aI-1
aI-1
aI-1
aF-0.9
aI-1
aI-1
aI-1
aI-1
aI-1
aI-1
aI-1
aI-1
aI-1
aI-1
aI-1
aI-1
aI-1
aI-1
aI-1
aI-1
aI-1
aI-1
aF-0.9
aI-1
aI-1
aI-1
aI-1
aI-1
aI-1
aI-1
aI-1
aI-1
aI-1
aI-1
aI-1
aI-1
aI-1
aI-1
aI-1
aI-1
aI-1
aI-1
aF-0.9
aI-1
aI-1
aI-1
aI-1
aI-1
aI-1
aI-1
aI-1
aI-1
aI-1
aI-1
aI-1
aI-1
aI-1
aI-1
aI-1
aI-1
aI-1
aF-0.9
aI-1
aI-1
aI-1
aI-1
aI-1
aI-1
aI-1
aI-1
aI-1
aI-1
aI-1
aI-1
aI-1
aI-1
aI-1
aF-0.9
aI-1
aI-1
aI-1
aI-1
aI-1
aI-1
aI-1
aI-1
aI-1
aI-1
aI-1
aI-1
aI-1
aI-1
aI-1
aI-1
aI-1
aI-1
aI-1
aI-1
aI-1
aF-0.9
aI-1
aI-1
aI-1
aI-1
aI-1
aI-1
aI-1
aI-1
aI-1
aI-1
aI-1
aI-1
aF-0.9
aI-1
aI-1
aI-1
aI-1
aI-1
aI-1
aI-1
aI-1
aI-1
aI-1
aI-1
aI-1
aI-1
aI-1
aI-1
aI-1
aI-1
aI-1
aI-1
aI-1
aI-1
aF-0.9
aI-1
aI-1
aI-1
aF-0.9
aF-0.9
aI-1
aI-1
aI-1
aI-1
aI-1
aI-1
aI-1
aF-0.9
aI-1
aI-1
aF-0.9
aI-1
aI-1
aI-1
aI-1
aI-1
aI-1
aI-1
aI-1
aI-1
aI-1
aI-1
aI-1
aI-1
aI-1
aI-1
aI-1
aI-1
aI-1
aI-1
aI-1
aI-1
aI-1
aI-1
aI-1
aI-1
aF-0.9
aI-1
aI-1
aI-1
aI-1
aI-1
aI-1
aF-0.9
aI-1
aI-1
aI-1
aI-1
aI-1
aF-0.9
aI-1
aF-0.9
aI-1
aF-0.9
aI-1
aI-1
aI-1
aI-1
aI-1
aI-1
aI-1
aI-1
aI-1
aI-1
aI-1
aI-1
aI-1
aI-1
aI-1
aI-1
aI-1
aI-1
aI-1
aI-1
aI-1
aI-1
aI-1
aI-1
aI-1
aI-1
aI-1
aI-1
aI-1
aI-1
aI-1
aI-1
aI-1
aI-1
aI-1
aI-1
aI-1
aI-1
aF-0.9
aI-1
aI-1
aI-1
aI-1
aI-1
aI-1
aI-1
aF-0.7
aI-1
aI-1
aI-1
aI-1
aF-0.9
aI-1
aI-1
aF-0.9
aI-1
aI-1
aI-1
aI-1
aI-1
aI-1
aI-1
aI-1
aI-1
aI-1
aI-1
aI-1
aF-0.9
aI-1
aI-1
aI-1
aI-1
aI-1
aI-1
aI-1
aI-1
aI-1
aI-1
aI-1
aI-1
aI-1
aI-1
aI-1
aI-1
aI-1
aI-1
aI-1
aF-0.9
aI-1
aI-1
aI-1
aI-1
aI-1
aI-1
aI-1
aI-1
aI-1
aI-1
aI-1
aI-1
aI-1
aI-1
aI-1
aI-1
aI-1
aI-1
aI-1
aI-1
aF-0.9
aI-1
aI-1
aF-0.9
aF-0.9
aF-0.9
aI-1
aI-1
aI-1
aI-1
aI-1
aF-0.9
aI-1
aF-0.9
aI-1
aI-1
aI-1
aI-1
aI-1
aI-1
aI-1
aF-0.9
aF-0.9
aI-1
aI-1
aI-1
aI-1
aI-1
aI-1
aI-1
aI-1
aF-0.9
aI-1
aI-1
aI-1
aI-1
aI-1
aF-0.9
aF-0.9
aI-1
aI-1
aI-1
aI-1
aF-0.9
aI-1
aF-0.9
aI-1
aI-1
aI-1
aI-1
aI-1
aI-1
aI-1
aI-1
aI-1
aI-1
aI-1
aI-1
aI-1
aI-1
aI-1
aF-0.9
aI-1
aI-1
aI-1
aI-1
aI-1
aI-1
aI-1
aI-1
aI-1
aI-1
aF-0.9
aI-1
aI-1
aI-1
aF-0.9
aI-1
aI-1
aI-1
aI-1
aF-0.9
aI-1
aI-1
aI-1
aI-1
aI-1
aI-1
aI-1
aI-1
aI-1
aI-1
aF-0.9
aF-0.9
aI-1
aF-0.9
aF-0.9
aI-1
aI-1
aI-1
aF-0.9
aI-1
aI-1
aF-0.9
aF-0.9
aI-1
aI-1
aF-0.9
aI-1
aF-0.9
aI-1
aI-1
aI-1
aF-0.9
aI-1
aI-1
aF-0.9
aI-1
aI-1
aI-1
aI-1
aF-0.9
aI-1
aI-1
aI-1
aI-1
aI-1
aI-1
aI-1
aF-0.9
aI-1
aI-1
aI-1
aI-1
aI-1
aI-1
aF-0.9
aF-0.9
aF-0.9
aI-1
aI-1
aI-1
aI-1
aI-1
aI-1
aF-0.9
aF-0.9
aI-1
aI-1
aI-1
aI-1
aF-0.9
aF-0.9
aF-0.7
aF-0.9
aF-0.9
aF-0.9
aI-1
aF-0.9
aI-1
aI-1
aI-1
aI-1
aI-1
aI-1
aI-1
aI-1
aI-1
aI-1
aI-1
aF-0.9
aI-1
aI-1
aI-1
aI-1
aI-1
aI-1
aI-1
aI-1
aI-1
aI-1
aF-0.9
aI-1
aI-1
aI-1
aI-1
aI-1
aI-1
aI-1
aI-1
aI-1
aI-1
aI-1
aF-0.9
aF-0.9
aI-1
aI-1
aF-0.9
aI-1
aI-1
aI-1
aI-1
aI-1
aI-1
aI-1
aI-1
aI-1
aI-1
aI-1
aI-1
aI-1
aF-0.9
aI-1
aI-1
aI-1
aI-1
aI-1
aI-1
aI-1
aI-1
aF-0.9
aI-1
aF-0.9
aI-1
aI-1
aF-0.9
aF-0.9
aF-0.9
aI-1
aI-1
aI-1
aI-1
aI-1
aI-1
aI-1
aI-1
aI-1
aI-1
aI-1
aI-1
aI-1
aI-1
aI-1
aI-1
aI-1
aI-1
aI-1
aI-1
aI-1
aF-0.9
aI-1
aI-1
aF-0.7
aI-1
aI-1
aI-1
aI-1
aI-1
aI-1
aF-0.9
aI-1
aI-1
aF-0.9
aI-1
aF-0.9
aI-1
aI-1
aI-1
aI-1
aI-1
aI-1
aI-1
aI-1
aI-1
aF-0.9
aI-1
aF-0.9
aI-1
aI-1
aI-1
aI-1
aF-0.9
aF-0.9
aF-0.9
aI-1
aI-1
aI-1
aI-1
aI-1
aF-0.9
aI-1
aI-1
aI-1
aF-0.9
aF-0.9
aI-1
aI-1
aF-0.9
aI-1
aI-1
aF-0.9
aI-1
aI-1
aF-0.9
aI-1
aF-0.9
aI-1
aF-0.9
aI-1
aF-0.9
aF-0.9
aF-0.9
aI-1
aI-1
aI-1
aI-1
aF-0.9
aI-1
aI-1
aI-1
aI-1
aF-0.9
aF-0.9
aI-1
aF-0.9
aI-1
aI-1
aF-0.9
aI-1
aI-1
aI-1
aI-1
aI-1
aI-1
aI-1
aI-1
aI-1
aF-0.9
aF-0.9
aI-1
aF-0.9
aI-1
aI-1
aI-1
aF-0.7
aI-1
aI-1
aF-0.9
aI-1
aF-0.9
aI-1
aI-1
aI-1
aI-1
aF-0.9
aI-1
aI-1
aF-0.9
aI-1
aI-1
aF-0.9
aF-0.9
aF-0.9
aF-0.9
aI-1
aI-1
aF-0.7
aI-1
aI-1
aI-1
aF-0.9
aI-1
aI-1
aF-0.7
aI-1
aI-1
aF-0.9
aI-1
aI-1
aF-0.9
aF-0.9
aF-0.9
aI-1
aI-1
aI-1
aF-0.9
aI-1
aI-1
aI-1
aI-1
aF-0.9
aF-0.9
aI-1
aI-1
aF-0.9
aF-0.7
aF-0.9
aF-0.9
aI-1
aF-0.9
aI-1
aF-0.9
aF-0.9
aI-1
aI-1
aF-0.9
aI-1
aI-1
aI-1
aF-0.9
aI-1
aF-0.9
aF-0.9
aF-0.9
aI-1
aF-0.9
aF-0.9
aI-1
aI-1
aF-0.7
aI-1
aI-1
aF-0.9
aF-0.9
aI-1
aF-0.9
aI-1
aI-1
aI-1
aI-1
aI-1
aF-0.7
aI-1
aI-1
aI-1
aF-0.9
aI-1
aF-0.9
aI-1
aI-1
aF-0.9
aI-1
aF-0.9
aF-0.9
aI-1
aI-1
aI-1
aF-0.9
aF-0.9
aI-1
aI-1
aF-0.9
aF-0.9
aI-1
aF-0.9
aI-1
aI-1
aF-0.9
aI-1
aI-1
aI-1
aF-0.9
aI-1
aI-1
aF-0.9
aI-1
aF-0.9
aI-1
aI-1
aI-1
aI-1
aI-1
aI-1
aI-1
aI-1
aF-0.9
aI-1
aF-0.9
aI-1
aI-1
aI-1
aI-1
aI-1
aI-1
aI-1
aF-0.7
aI-1
aI-1
aI-1
aI-1
aI-1
aI-1
aF-0.9
aF-0.9
aF-0.9
aF-0.9
aI-1
aI-1
aF-0.9
aI-1
aI-1
aI-1
aF-0.9
aI-1
aF-0.9
aI-1
aI-1
aI-1
aF-0.9
aI-1
aI-1
aF-0.9
aF-0.9
aF-0.7
aF-0.9
aF-0.7
aI-1
aI-1
aF-0.9
aF-0.9
aI-1
aF-0.9
aI-1
aI-1
aF-0.9
aI-1
aI-1
aI-1
aI-1
aI-1
aI-1
aF-0.9
aI-1
aF-0.9
aF-0.9
aI-1
aI-1
aI-1
aI-1
aF-0.9
aI-1
aF-0.9
aI-1
aI-1
aI-1
aI-1
aI-1
aF-0.9
aF-0.9
aF-0.9
aI-1
aI-1
aI-1
aI-1
aF-0.9
aF-0.9
aF-0.7
aI-1
aF-0.9
aI-1
aI-1
aF-0.9
aF-0.9
aF-0.9
aF-0.9
aI-1
aF-0.9
aI-1
aI-1
aF-0.9
aI-1
aF-0.9
aF-0.9
aF-0.9
aI-1
aI-1
aF-0.9
aI-1
aI-1
aF-0.9
aI-1
aF-0.9
aI-1
aI-1
aI-1
aF-0.7
aI-1
aI-1
aF-0.9
aF-0.9
aI-1
aF-0.9
aI-1
aF-0.7
aI-1
aI-1
aI-1
aF-0.9
aI-1
aI-1
aI-1
aF-0.9
aF-0.9
aI-1
aF-0.9
aF-0.7
aI-1
aI-1
aF-0.9
aI-1
aI-1
aI-1
aI-1
aI-1
aF-0.9
aF-0.7
aI-1
aI-1
aI-1
aF-0.7
aI-1
aF-0.9
aF-0.9
aF-0.9
aI-1
aF-0.7
aF-0.9
aI-1
aI-1
aF-0.9
aI-1
aF-0.9
aF-0.9
aI-1
aF-0.7
aF-0.9
aI-1
aF-0.7
aI-1
aI-1
aF-0.9
aI-1
aI-1
aI-1
aF-0.9
aI-1
aI-1
aI-1
aI-1
aF-0.9
aI-1
aI-1
aI-1
aI-1
aF-0.9
aF-0.9
aF-0.9
aI-1
aI-1
aF-0.7
aI-1
aF-0.9
aF-0.9
aF-0.9
aI-1
aF-0.9
aI-1
aI-1
aI-1
aI-1
aF-0.9
aI-1
aF-0.9
aF-0.9
aI-1
aI-1
aI-1
aI-1
aF-0.9
aF-0.9
aF-0.9
aF-0.7
aI-1
aF-0.9
aI-1
aF-0.9
aF-0.9
aF-0.9
aI-1
aF-0.9
aF-0.9
aI-1
aF-0.9
aI-1
aI-1
aI-1
aI-1
aF-0.9
aF-0.9
aI-1
aF-0.9
aI-1
aF-0.9
aF-0.9
aI-1
aI-1
aF-0.9
aF-0.9
aI-1
aF-0.9
aF-0.9
aI-1
aI-1
aF-0.9
aF-0.9
aF-0.9
aF-0.9
aF-0.9
aI-1
aI-1
aF-0.7
aF-0.9
aI-1
aF-0.9
aF-0.7
aF-0.9
aF-0.9
aI-1
aF-0.7
aF-0.9
aF-0.9
aF-0.7
aF-0.9
aI-1
aF-0.9
aF-0.9
aF-0.7
aF-0.9
aF-0.7
aI-1
aF-0.9
aI-1
aF-0.7
aI-1
aF-0.9
aF-0.9
aI-1
aF-0.9
aF-0.9
aI-1
aI-1
aI-1
aI-1
aF-0.9
aI-1
aF-0.9
aI-1
aF-0.9
aF-0.9
aF-0.7
aF-0.9
aI-1
aF-0.7
aF-0.9
aI-1
aI-1
aF-0.7
aF-0.9
aI-1
aF-0.7
aF-0.9
aF-0.9
aI-1
aI-1
aF-0.9
aF-0.7
aF-0.9
aF-0.7
aF-0.9
aF-0.9
aF-0.9
aI-1
aI-1
aF-0.7
aI-1
aF-0.9
aI-1
aI-1
aF-0.9
aF-0.9
aF-0.9
aI-1
aF-0.9
aF-0.7
aI-1
aF-0.9
aF-0.9
aI-1
aI-1
aI-1
aF-0.9
aF-0.9
aF-0.7
aF-0.9
aF-0.9
aF-0.7
aI-1
aI-1
aI-1
aI-1
aF-0.7
aF-0.9
aF-0.7
aI-1
aF-0.9
aF-0.9
aF-0.9
aF-0.7
aI-1
aF-0.9
aF-0.7
aF-0.7
aF-0.9
aI-1
aF-0.9
aF-0.9
aF-0.9
aF-0.7
aF-0.7
aF-0.9
aF-0.7
aF-0.7
aI-1
aF-0.9
aI-1
aI-1
aF-0.7
aI-1
aI-1
aF-0.9
aF-0.9
aF-0.9
aF-0.7
aF-0.9
aF-0.9
aF-0.7
aF-0.9
aI-1
aI-1
aF-0.9
aF-0.9
aF-0.7
aI-1
aI-1
aI-1
aI-1
aI-1
aF-0.9
aF-0.9
aF-0.7
aF-0.9
aF-0.9
aF-0.9
aF-0.7
aF-0.7
aI-1
aF-0.7
aI-1
aF-0.9
aF-0.9
aF-0.9
aI-1
aI-1
aI-1
aI-1
aF-0.9
aF-0.7
aI-1
aF-0.9
aI-1
aI-1
aF-0.9
aF-0.9
aI-1
aI-1
aF-0.7
aF-0.9
aF-0.7
aF-0.9
aF-0.9
aF-0.9
aI-1
aF-0.9
aF-0.9
aF-0.9
aI-1
aI-1
aF-0.9
aF-0.9
aI-1
aF-0.9
aF-0.9
aI-1
aF-0.7
aF-0.7
aI-1
aF-0.7
aI-1
aF-0.7
aI-1
aF-0.9
aF-0.9
aF-0.7
aF-0.9
aF-0.9
aI-1
aF-0.9
aF-0.9
aF-0.9
aI-1
aF-0.9
aF-0.9
aI-1
aF-0.9
aF-0.9
aF-0.9
aF-0.9
aF-0.9
aI-1
aF-0.7
aF-0.7
aI-1
aI-1
aI-1
aF-0.9
aI-1
aI-1
aI-1
aF-0.9
aF-0.7
aF-0.9
aF-0.9
aF-0.9
aF-0.9
aF-0.9
aF-0.9
aI-1
aI-1
aI-1
aI-1
aF-0.9
aI-1
aI-1
aI-1
aF-0.7
aF-0.9
aF-0.7
aF-0.9
aF-0.7
aF-0.7
aF-0.7
aF-0.7
aF-0.7
aF-0.9
aF-0.9
aI-1
aF-0.9
aF-0.7
aF-0.7
aF-0.7
aF-0.9
aF-0.9
aF-0.9
aF-0.9
aI-1
aF-0.9
aF-0.7
aF-0.9
aF-0.7
aI-1
aF-0.9
aF-0.7
aI-1
aF-0.9
aF-0.9
aF-0.7
aI-1
aF-0.7
aI-1
aI-1
aF-0.9
aI-1
aF-0.9
aF-0.9
aF-0.9
aF-0.7
aI-1
aI-1
aF-0.9
aF-0.9
aF-0.9
aF-0.7
aI-1
aF-0.7
aF-0.9
aI-1
aF-0.9
aF-0.7
aF-0.7
aF-0.7
aF-0.7
aI-1
aI-1
aF-0.9
aI-1
aI-1
aF-0.9
aF-0.9
aF-0.9
aF-0.7
aF-0.9
aF-0.7
aF-0.7
aF-0.7
aF-0.9
aF-0.9
aI-1
aF-0.7
aI-1
aI-1
aI-1
aF-0.7
aF-0.9
aF-0.9
aF-0.7
aF-0.9
aF-0.9
aF-0.7
aF-0.7
aF-0.7
aF-0.9
aF-0.7
aI-1
aF-0.9
aF-0.9
aI-1
aI-1
aI-1
aF-0.7
aF-0.9
aI-1
aI-1
aF-0.9
aF-0.9
aI-1
aF-0.9
aF-0.9
aF-0.7
aF-0.9
aF-0.9
aF-0.9
aF-0.9
aI-1
aF-0.7
aF-0.7
aI-1
aI-1
aI-1
aF-0.7
aI-1
aF-0.7
aF-0.9
aF-0.9
aI0
aI-1
aI0
aI0
aI-1
aF-0.7
aF-0.9
aF-0.7
aF-0.9
aF-0.7
aI-1
aF-0.7
aI-1
aF-0.9
aF-0.9
aI-1
aI-1
aF-0.9
aF-0.9
aF-0.7
aI-1
aI-1
aI-1
aI-1
aI-1
aF-0.7
aF-0.7
aI-1
aF-0.7
aF-0.7
aF-0.7
aI-1
aF-0.9
aF-0.7
aF-0.9
aI-1
aI-1
aI-1
aF-0.7
aF-0.9
aF-0.9
aF-0.7
aF-0.7
aF-0.9
aI-1
aF-0.9
aF-0.7
aF-0.9
aF-0.7
aF-0.7
aF-0.9
aI-1
aF-0.9
aF-0.7
aF-0.9
aI-1
aF-0.7
aF-0.9
aI-1
aI-1
aF-0.7
aF-0.7
aF-0.9
aI-1
aF-0.7
aF-0.7
aF-0.7
aF-0.7
aI-1
aF-0.7
aF-0.9
aI-1
aI-1
aF-0.9
aF-0.9
aF-0.9
aI-1
aF-0.9
aF-0.9
aF-0.9
aF-0.9
aF-0.9
aF-0.7
aF-0.9
aF-0.7
aF-0.9
aI0
aI-1
aF-0.9
aF-0.9
aF-0.7
aF-0.9
aF-0.9
aF-0.7
aF-0.9
aF-0.9
aF-0.9
aI-1
aF-0.9
aI-1
aI-1
aF-0.9
aF-0.9
aF-0.9
aF-0.7
aF-0.9
aF-0.7
aF-0.7
aF-0.9
aI-1
aF-0.9
aF-0.9
aF-0.7
aF-0.9
aI-1
aF-0.9
aF-0.9
aF-0.9
aF-0.7
aI-1
aF-0.9
aF-0.9
aF-0.9
aF-0.9
aF-0.9
aF-0.9
a.