(lp0
F-3.286658857204472e-05
aF0.08369933279551
aF-2.9004851350045158e-05
aF0.13953579341603461
aF0.15088195768259194
aF0.12864931026592208
aF-3.269716920861754e-05
aF0.17147483110341666
aF-1.828732774633579e-05
aF-3.102091062778811e-05
aF0.02305769801411106
aF0.017182928513167717
aF0.04081403646729953
aF0.02592932384624458
aF0.07950898116251448
aF-3.3626952912868546e-05
aF-6.734085333803819e-08
aF0.01856951180762101
aF0.23298822642674466
aF0.08383739573007265
aF0.06670892306983056
aF0.27776182395294313
aF0.018034297857280723
aF0.01656446390768629
aF-3.3908142693217513e-05
aF0.13608258845432752
aF0.11077785852289734
aF0.004163149815045841
aF0.20010851783460915
aF0.11756492564397325
aF-3.286648756395394e-05
aF0.19915634408355443
aF-2.5331431955599726e-05
aF0.012982578889336072
aF-2.3824804290750734e-05
aF0.14903621009326162
aF-1.2504155359582825e-05
aF0.11015056630173614
aF-2.3656231701085773e-05
aF-2.3704423791848228e-05
aF-3.065420386860751e-05
aF-2.927849249179104e-05
aF0.012102663592814533
aF-2.4670262225967576e-05
aF0.22764672381818407
aF-2.866030823600596e-05
aF0.09706186264615013
aF0.015355942417669688
aF-2.8276714695962823e-05
aF0.01814087017085697
aF0.017197676255850336
aF0.018934295660045564
aF0.016723404622209337
aF0.3820000730677058
aF0.22631652913180966
aF0.008106020659338853
aF0.1677987488320456
aF0.28454309436006886
aF9.225934234358135e-07
aF0.018104585425762654
aF0.04492484512413464
aF0.1643103839939397
aF0.2997299630659849
aF-3.058111950293707e-05
aF-3.2301186118743885e-05
aF0.19794176050125678
aF0.017549127439222545
aF0.0875936117568279
aF-3.1966231377023036e-05
aF0.0551612917322184
aF-2.9709649794096293e-05
aF0.16804878734580164
aF0.01828271571238993
aF-2.0820783444897017e-05
aF9.97476426367605e-05
aF-2.774448038955768e-05
aF0.2891388160286885
aF-2.5360835373522406e-05
aF0.015683623020756876
aF0.018911523646909068
aF0.04077726090956579
aF0.1086786556475543
aF0.01814224099869044
aF0.028118419442018983
aF0.35666630699610025
aF0.01847612453883718
aF0.24401528863180566
aF0.15223476211327958
aF0.20218994700002524
aF-2.7309810289199987e-05
aF0.1307903978046805
aF0.10722355853086674
aF0.09394112165322044
aF0.3561104405117641
aF0.008721831106274003
aF0.017754649624007968
aF-1.5343588171568e-05
aF0.018025382933792855
aF-3.092969910323262e-05
aF0.027894034342098806
aF-3.392489464815185e-05
aF0.11135295887654229
aF0.016133565325627597
aF-3.385267049793583e-05
aF-3.038567808832937e-05
aF0.004224382181559072
aF-2.271305758538844e-05
aF0.14073626623177882
aF0.1947992708732511
aF-1.4959862660202106e-05
aF0.18197129862871142
aF0.27878277328184264
aF0.017044495617353217
aF-3.0123783341107213e-05
aF-3.2822656831577035e-05
aF0.07075216101552595
aF0.018704237821611347
aF0.010333214372172161
aF0.018793180529260933
aF0.008531619399409607
aF0.09744511571214254
aF0.19157194427738355
aF0.013785283638028112
aF0.018268735580451168
aF0.07528160446086352
aF0.24069596298750984
aF0.3241426350653005
aF0.018055612643678387
aF-3.329403721963331e-05
aF0.2375578124417097
aF-2.6450273256983792e-05
aF-2.499200580619032e-05
aF-3.192008218766418e-05
aF-2.0443893017585424e-05
aF-1.6950307182295177e-05
aF-2.956225294203918e-05
aF-2.7734625037911798e-05
aF0.0174809180860227
aF-1.049319188739517e-05
aF0.017949274088136402
aF0.01854135987305483
aF-2.4971968969556002e-05
aF0.2623421187096473
aF0.02195255982442479
aF0.01897903408491608
aF0.007973472357821976
aF-3.0294445338086007e-05
aF0.14937903802488517
aF0.14863495172330277
aF-2.6530695527160475e-05
aF0.0182243935761921
aF0.11043603159396698
aF0.3415694603938775
aF6.77106212649825e-05
aF0.018109806258921335
aF0.018508419098171913
aF0.030814585252351367
aF0.17150486662884656
aF0.016731262304981342
aF0.031042386794641885
aF0.1751248717683498
aF0.18503829096544777
aF0.09193579348218339
aF-2.8998148501990784e-05
aF0.38233596826076344
aF-2.474515294892399e-07
aF0.23358698290878888
aF0.008933489664669114
aF-3.1592233741495335e-05
aF-3.249916179237644e-05
aF0.03893374379481829
aF0.009090692344616347
aF0.21922579878944015
aF0.037251372900405144
aF0.13619320698305648
aF-3.0116434497351463e-05
aF0.37217458685781146
aF-3.0041345111975204e-05
aF0.018920736097752133
aF0.3472196134357288
aF-2.123779180918106e-05
aF-3.2842096952645505e-05
aF-1.464329830858091e-05
aF0.015687917038409438
aF0.06149985143718739
aF0.018757236599983074
aF-3.290726684701539e-05
aF0.040096362026208254
aF0.004176017247450314
aF0.03001540188135232
aF-1.592159546737193e-05
aF-3.155474652904999e-05
aF-3.264396601210251e-05
aF0.022555091588577714
aF-2.479553292866754e-05
aF-3.114570359485924e-05
aF-2.7944417046121828e-05
aF0.11342837666696015
aF0.00011946611814117603
aF0.018060247649314576
aF0.33056998785417724
aF0.029103383153515683
aF0.03898827120356696
aF-3.0515118335738833e-05
aF-2.8402454689491208e-05
aF0.018320255686695486
aF0.018345532988023994
aF-1.817727295083671e-05
aF0.009766655923148182
aF-2.8305892979751945e-05
aF0.01870087203501747
aF0.018495849522592422
aF0.014634081705600988
aF0.02056815990766836
aF0.017530316026838744
aF-2.765597419296384e-05
aF0.019265751121580355
aF-3.168136350328865e-05
aF-3.152284987884002e-05
aF-2.716727425911003e-05
aF0.01632544471380104
aF-3.322776841052644e-05
aF0.018235417058791725
aF0.01740428673919059
aF-1.7799279694141745e-05
aF0.018181833625118937
aF0.01743840137542163
aF0.01879747496345141
aF-2.7083794190030375e-05
aF0.009743067187158783
aF0.030135617381235935
aF0.018343092348491297
aF-1.817557320427099e-05
aF-2.5458892540353162e-05
aF0.01900679365301494
aF-3.003886785357679e-05
aF0.25027057409846964
aF0.09242248032510014
aF0.022154715823679005
aF-3.195774256692374e-05
aF-2.5397384032288528e-05
aF-2.1000151365413444e-05
aF-2.0989440249863378e-05
aF-2.648829637363903e-05
aF-3.27108540507659e-05
aF0.29379570373589026
aF-2.4563416753498046e-05
aF-2.9300997621550806e-05
aF-2.974324088800273e-05
aF0.01886975993376483
aF0.051220507663691794
aF0.020299972320304338
aF0.01942997711106642
aF0.38687260920820377
aF1.1654717811282467e-05
aF0.00952324133439486
aF0.01886025312356132
aF0.01847325986853976
aF0.019138466764814233
aF-2.9439820561361074e-05
aF0.018459541271108826
aF-2.8815876115029226e-05
aF0.02259079398021635
aF0.1150812189494621
aF-2.023712566279201e-05
aF0.01286876274009252
aF0.039035497271664
aF0.016700151640506533
aF0.3376510937024353
aF0.18462264833470377
aF-3.145315036512386e-05
aF0.11101480980334744
aF0.40181884408894053
aF-2.7314143990597728e-05
aF-3.497269027619154e-05
aF0.0629927005171056
aF-3.444230266813619e-05
aF-2.9631372954419533e-05
aF0.08122444593852896
aF-3.130159314590486e-05
aF0.018337265401015657
aF-3.3434626688144675e-05
aF0.018224409927826368
aF0.018195348176892612
aF-2.507792074490922e-05
aF-3.181062042756366e-05
aF0.18914499299678367
aF-2.3356152832221255e-05
aF0.12431203821314263
aF0.22872291088154295
aF0.017569325757102572
aF0.05536412005101399
aF0.37174527513741884
aF0.3267938956715115
aF0.03245452890941403
aF0.01862030346517507
aF0.15083614311725224
aF-2.9643956405589478e-05
aF-1.834445184245581e-05
aF0.017963203865160704
aF-2.755455108349736e-05
aF0.03903094670302565
aF0.01820078168152861
aF-3.2028311579779256e-05
aF0.38337980509673386
aF0.12557125262384927
aF0.08958209141676443
aF0.018367633524700278
aF0.12561840693132753
aF0.016433111322375016
aF-3.225728506039971e-05
aF-3.284853412921507e-05
aF0.013402814027222654
aF0.019224300044024645
aF-3.295834683614274e-05
aF-2.6626402170659702e-05
aF0.20211956623063276
aF-2.4002618120189112e-05
aF-2.543073662542028e-05
aF0.01824988789913018
aF0.02068751474915187
aF0.01696357437904039
aF-3.280707190089771e-05
aF0.02843117718608834
aF-2.8815804501203246e-05
aF0.01826171575427349
aF-2.5817759402801954e-05
aF0.02759948617843566
aF-3.189833698202804e-05
aF0.018266979218119594
aF0.1635589879583459
aF0.21774928444844832
aF0.0022652541587264707
aF-2.089580373754174e-05
aF0.07759993321066716
aF0.018496041066666358
aF0.016706413717419544
aF0.04436000582634714
aF0.0012096999866284541
aF-3.224678694024874e-05
aF0.19649587298676296
aF0.2740449085918639
aF0.029746327484265755
aF0.01856062983058493
aF-3.1434753316350594e-05
aF0.029324806119168212
aF0.012201808698913741
aF-3.175431076174462e-05
aF-3.4832129067297046e-05
aF0.01876115025277869
aF0.08566491636720741
aF0.05040989398311879
aF0.01848569238520481
aF0.017292624398956846
aF0.08370198873399692
aF0.018321380173605295
aF0.017057366732161405
aF0.01888179965156933
aF0.018525964867577294
aF0.018403824309060735
aF0.12928323902441097
aF0.018431730356298637
aF0.12448085656232832
aF0.016095855780311474
aF0.19560759274920736
aF-2.8358622842006298e-05
aF-2.4702536220555515e-05
aF0.01809938548405743
aF-3.4807785677326564e-05
aF0.00373668619921963
aF-2.91169853983142e-05
aF0.07114542047463335
aF0.01830416002014701
aF0.018822086762082524
aF0.2070709140576148
aF0.018417804902052026
aF0.04492328675706503
aF0.018093061710299452
aF-3.085371630096034e-05
aF-3.219229132467305e-05
aF0.018987709063034153
aF-3.3552211184950664e-05
aF0.22900326996671705
aF0.01798811779753251
aF0.01885919543538872
aF-3.249410944494713e-05
aF0.017249588541995653
aF0.1598894597192828
aF0.02152787388380517
aF8.790246262302404e-05
aF0.015980184094891214
aF-3.324645741331622e-05
aF-3.0741489908781006e-05
aF0.17142588219125665
aF0.05460904413507084
aF0.02017711989594595
aF0.13315248206687658
aF-2.4550052031724334e-05
aF0.007183456353367035
aF0.09617533153948044
aF0.299409462148001
aF0.15629618124141276
aF0.1927497180429767
aF0.1003942149921766
aF0.13530730471427788
aF0.0748084629099468
aF0.4539728454187082
aF0.06814947554639783
aF-2.9044153678547957e-05
aF-2.930320916849638e-05
aF0.1524453546776079
aF0.4299943739951644
aF0.0764192483478463
aF0.13373124947157589
aF0.07564937103219149
aF0.18784207056566826
aF0.07152965135488021
aF0.33119114452645926
aF0.2203872016105204
aF0.18944020473732381
aF0.3702027597754327
aF0.3219591934848811
aF0.07063191064082597
aF0.003999526584080204
aF0.4835096303921489
aF0.162883806687935
aF0.304260570582811
aF0.15379922861631767
aF0.23275759843614496
aF0.017924432753923636
aF0.29839490069332086
aF0.23072522055728006
aF0.13108655553808912
aF0.2659281316782365
aF0.40102692598231604
aF0.41639751992895446
aF-3.062247004192997e-05
aF0.1339643348393582
aF-2.545656688912601e-05
aF-3.4186412294801016e-05
aF0.05660862278204437
aF0.14922682495943995
aF0.11143991349747395
aF0.01774112468268818
aF0.3616241263196014
aF0.20233565755298555
aF0.11493431074023297
aF0.4151861644131025
aF-3.195301923941685e-05
aF-2.7036301043725786e-05
aF0.4820567074629434
aF0.11085252330375939
aF0.170299802624728
aF0.1112162702192605
aF0.554961932548439
aF0.10861504939720135
aF0.2866238057158834
aF0.0033894190007148772
aF0.0167703290427359
aF0.020135076342686187
aF-3.40879900315727e-05
aF-3.16935061390744e-05
aF0.3809600218136784
aF0.3227236136293028
aF0.03912235887475246
aF0.4103029956967914
aF0.5081693279389179
aF-2.7711850673295402e-05
aF0.008796356461031163
aF0.1088199852752556
aF0.21492289479794602
aF0.6076152888920032
aF-3.057095804104293e-05
aF0.15086675479258504
aF0.1107782420339869
aF-3.0890327659793826e-05
aF0.21739560253480184
aF0.41946709587370234
aF0.3744118957535876
aF2.037992241188391e-06
aF0.360383024693391
aF0.5029943574505573
aF0.17045747929012078
aF0.3168209924838732
aF0.5707063752305501
aF0.12294082635202708
aF0.12654450702006237
aF0.2407157063791705
aF-3.013867408885318e-05
aF0.32184266477308254
aF0.15117220724082436
aF0.018013305174723993
aF0.2420250908853201
aF0.4535477755361783
aF0.03793287719351124
aF0.19065700733980506
aF0.21643697370645087
aF0.020674074414383625
aF0.3405928007155503
aF0.3890665044995827
aF0.3896891151915334
aF0.19999123992046997
aF0.49737699995993934
aF0.1237542241909364
aF0.1876258514023159
aF0.0186119747773561
aF-2.3453789040672746e-05
aF-3.075467328539361e-05
aF0.2984304541740199
aF0.11361122608075469
aF0.016553779440287464
aF0.49211403602453174
aF0.624084381713836
aF0.23357240905683607
aF0.04052879814966115
aF0.41112972172181195
aF-3.3068195536944955e-05
aF0.49573058099458756
aF0.17939150692260863
aF0.21608589044923665
aF0.009062582697224375
aF-3.186087518525227e-05
aF0.4957814311528006
aF0.12339548095258435
aF0.12353072556168687
aF0.40442862903736865
aF0.06279237010518868
aF0.7645082384549449
aF0.22227573818094903
aF-2.5448462661170623e-05
aF0.1927075901354769
aF-1.5473898719253754e-05
aF-1.797472662445898e-05
aF0.5845349973117995
aF0.5549893223781868
aF0.16892218637522127
aF0.10891707793994243
aF0.1704658779700705
aF0.08724317859240882
aF0.11139698445298274
aF0.42974549601745027
aF0.11339968564324465
aF0.1544487824292191
aF-2.4571700486752945e-05
aF0.2791426291087813
aF-2.0986967448788363e-05
aF0.03735934191673573
aF0.21218262147012457
aF-3.021330739017003e-05
aF0.17101748919007065
aF0.01664539954848321
aF0.01801242694793226
aF0.06658342074308798
aF0.29570808080679534
aF0.0119659615995098
aF0.8744505435744467
aF0.32110007830822207
aF-2.8766369856381147e-05
aF-3.111772479824637e-05
aF0.2999156503571667
aF0.17647443142164265
aF-2.7081662562711273e-05
aF-3.141568341780143e-05
aF0.3260623744404225
aF-2.683847533768713e-05
aF0.018703872957714918
aF-2.7296122218967156e-05
aF-2.130787887155705e-05
aF0.2985869186135517
aF0.11073705629170671
aF-2.401973968169102e-05
aF0.2714168029522228
aF0.5157103522086546
aF0.08961622755991794
aF-2.7489693464222142e-05
aF0.1149566878383057
aF0.08732978709241168
aF0.3389029867849329
aF0.19091071447688535
aF0.5930951110331786
aF0.1108501783113045
aF0.16803641236441047
aF0.4893607151516317
aF-3.267298454012746e-05
aF0.8148509808860629
aF0.2402281877872965
aF0.32785486664041263
aF0.08594909518290761
aF-3.072183679631024e-05
aF-2.9818773874978888e-05
aF-3.2851664894639754e-05
aF0.741570283598266
aF0.31771372817566723
aF0.45376438530641483
aF0.13555985644260815
aF0.8371454592769041
aF0.43900747520323247
aF-3.381628528265068e-05
aF-3.269536007843854e-05
aF0.12382220468603311
aF0.11225379186906359
aF-2.9003503974944778e-05
aF-2.7249113578431405e-05
aF-3.1893194908594324e-05
aF0.2165496339300188
aF-2.9553321775122043e-05
aF-3.387956509204315e-05
aF-3.1715722862646345e-05
aF0.5290414875831044
aF0.017468302001572678
aF-2.8927204599682454e-05
aF0.40517637472122603
aF-2.2891045142525712e-05
aF0.11245566288530195
aF0.2636908699993117
aF0.32995167652914814
aF0.29960176987247555
aF0.31932459317016315
aF-3.3325124278782425e-05
aF0.2992012309172227
aF0.06532406258464585
aF0.5501915965463717
aF0.5931855232773375
aF0.5011869555301462
aF0.16654573918270676
aF0.118255156905132
aF0.7256912547544969
aF0.6277279568329526
aF0.11134563896475047
aF-2.966036836093977e-05
aF0.18391457437822023
aF-2.7025773996047775e-05
aF0.26923180501871746
aF-2.0227200709488358e-05
aF0.49508474409718106
aF0.3372171463134439
aF0.24717678854654457
aF0.6495735449133635
aF-3.0155690214250797e-05
aF0.26182472323712025
aF0.6454164780231926
aF0.016760351065522983
aF0.4163917936529433
aF0.018039522397355068
aF0.24046808888937932
aF0.07725432124013043
aF0.22907116938764904
aF-3.0986095725715757e-05
aF0.4946444875350928
aF0.11323046968168304
aF0.4313103272009684
aF0.5990764846429277
aF0.020743870734074576
aF-3.267733771172843e-05
aF0.7077792239963334
aF0.4555640823144076
aF3.170440542499264e-05
aF0.1754290138936061
aF0.22994147421534805
aF0.05577128009982513
aF0.06539957925510054
aF-3.398710853597109e-05
aF0.17252752736318966
aF0.17738894688590667
aF0.37429415368807684
aF0.2995773082689319
aF-2.422782450794969e-05
aF0.11941415748330364
aF0.43666762844364637
aF0.11209550020972925
aF0.1101279652949625
aF0.6393966664932274
aF0.49505907549747485
aF0.22648309476732997
aF0.4818373750045821
aF0.12920663697360046
aF0.10889676586346564
aF0.2892701762687615
aF0.12417798910092159
aF0.10848323577062224
aF0.2508458408960381
aF0.23007652090971398
aF0.3528275616954262
aF0.3665222371138155
aF-2.7154063304113407e-05
aF0.11070327113308309
aF0.1672249955383407
aF0.6069958373197917
aF0.21974672409395524
aF0.31617332844177115
aF0.3177141552059757
aF-2.9938697308384832e-05
aF0.21394613776574323
aF0.7758119922229669
aF0.1084126485259187
aF0.38478039190039004
aF0.3165390289229637
aF0.6262753084747832
aF0.21634614692791976
aF0.11209098986562882
aF0.5764105600066438
aF-2.925865327352284e-05
aF0.489589283219265
aF0.11349809959030743
aF0.1847653569287444
aF0.2749337822478952
aF0.005965483790203674
aF0.17469543254380637
aF0.25959210252468834
aF0.5920738671038874
aF0.4104753234711951
aF0.3499576189107474
aF0.1861633721575644
aF0.13245978521657165
aF0.27009671994099715
aF0.11085621635410847
aF-3.0773305583320365e-05
aF-2.5506438605216175e-05
aF0.2570712420810608
aF0.010566562994187123
aF-2.4254313760074808e-05
aF-3.099770027192861e-05
aF-3.096793895274175e-05
aF8.091608627092128e-05
aF0.15228007724418635
aF0.298260820633899
aF0.3271809994868109
aF0.1106128129671955
aF0.2986428774557508
aF-7.227208339344315e-06
aF-3.1958763496042764e-05
aF0.3567863108156577
aF0.2146962423697465
aF0.6336830157860911
aF0.4078877629658857
aF0.3162572059055666
aF0.4481703487137816
aF0.4183314609567472
aF0.11143135259434178
aF0.03884473104015873
aF0.6051841465336913
aF0.17381069850542197
aF0.01570331003115566
aF0.37911417867590735
aF0.2778313364625853
aF-9.277158296239207e-06
aF0.4095322955415117
aF0.41531494696647053
aF0.2265989454416899
aF0.6935800925117377
aF0.4570471756647776
aF0.011896764800290782
aF0.40974581787835795
aF0.08908372572190748
aF0.01711159853785693
aF-3.0982597833961734e-05
aF-2.2831234443465576e-05
aF0.5066259731608156
aF0.44102832465124786
aF0.11126522328736721
aF0.4949600839295023
aF0.10852705394668716
aF0.602694511234148
aF0.7765282077254159
aF0.23085141509958929
aF0.13067561008162132
aF0.4275999735670144
aF-2.7945352078617702e-05
aF0.31305902695922283
aF-3.138771520649897e-05
aF-1.1927739711037333e-05
aF-1.634024471375284e-05
aF0.34213056092449223
aF0.41712571880207117
aF0.6483090549883479
aF-2.6369677265325464e-05
aF0.37149719452982577
aF-2.8794809897814133e-05
aF0.371288047338449
aF0.00014335281738420136
aF0.26080346587707526
aF0.5553177918853018
aF0.6913150424749888
aF0.25665147572005065
aF-3.20345217850182e-05
aF0.4279987205394131
aF0.334270837243682
aF0.21741223465529247
aF0.11264247473022726
aF-1.8889165847468803e-05
aF0.3828139919385216
aF0.21344154704157603
aF0.41103392766083946
aF0.37556687479310735
aF0.36614012508774785
aF0.21747863023409808
aF0.017807620769943355
aF-3.018238900454051e-05
aF0.014608709811254172
aF-3.4092384638917395e-05
aF0.017282045293950166
aF0.11308568706085875
aF0.5902327906843712
aF0.07028670099309009
aF0.4948367852419162
aF0.114786143228502
aF0.2302208245142956
aF0.25023206211126015
aF0.6055184829010396
aF0.5139418222696239
aF0.32932781691326074
aF0.2984518855495968
aF-2.297453728772325e-05
aF-1.4641155556383012e-05
aF0.5194012156967416
aF0.004487732776412123
aF0.2277771640348636
aF0.004678065088493888
aF0.28105490693052326
aF0.2445812628794446
aF-2.8327627571211877e-05
aF0.12274780606264013
aF-3.174006699913079e-05
aF0.4085836665958582
aF0.06521172563206523
aF0.18909859669149887
aF0.6077797244242378
aF0.09301053676347015
aF-2.7995920413470543e-05
aF0.11216301515977412
aF-3.3185659229939546e-05
aF0.12315533721409011
aF0.5353275201028889
aF0.1180344686615924
aF0.22784619358241054
aF0.3000164111436847
aF0.33965133842580375
aF0.3126497264901609
aF0.31478541297638696
aF0.4570647322990289
aF0.015243871255303798
aF0.10899689674802149
aF0.4949839125891353
aF-2.9072456747769593e-05
aF-2.839162327283873e-05
aF0.5797602429485234
aF0.3247133768857622
aF-1.7624227327761588e-05
aF0.07094345690975468
aF0.11244980264240478
aF0.32456700874553635
aF0.11374071713735123
aF0.32893278704016504
aF0.21740281077446877
aF0.4912330331525636
aF0.22802002312193625
aF-2.822816135239492e-05
aF0.05519222546939684
aF-2.661844350138054e-05
aF-3.130274020612944e-05
aF0.555927599178291
aF0.017431507468717022
aF0.3243298791106999
aF0.41566977974750063
aF0.3571321567777983
aF0.730385701334221
aF0.7087592559247815
aF0.43378690406059617
aF0.017350136355150703
aF0.2130433934240843
aF0.22277833457475582
aF-3.358764118166491e-05
aF0.09618951985542656
aF0.39189027657280295
aF0.216532660624968
aF-2.2079279275999397e-05
aF0.6626897717303488
aF0.016651759133238908
aF0.30357875883143626
aF-2.5078576329828906e-05
aF0.11123564879138037
aF0.0720540960211471
aF0.32323981556269077
aF0.2757306413258034
aF0.751713302190606
aF0.5351317423265347
aF0.0387306953099773
aF0.4297539649155766
aF0.2138570930171011
aF0.2950444101455263
aF0.0702709609955745
aF0.11865653610441695
aF0.4609135054903608
aF0.012033463248275922
aF0.11250807220454995
aF0.216848429947897
aF0.26019042905035983
aF0.22864313641895295
aF0.009835071761034264
aF0.5827743124494593
aF0.4987064467987734
aF0.3266073536479217
aF0.9463426623968489
aF0.43664392174605515
aF0.4122385910480175
aF0.28585667866294795
aF0.46253388493967273
aF0.21242870370217304
aF-3.124326029313451e-05
aF0.4004639114022668
aF0.23296028781612677
aF0.21929902579601057
aF0.11874545878369025
aF0.5939397272387357
aF0.4210346476005795
aF0.4960017348976393
aF-2.471542986937081e-05
aF0.40449746171451517
aF0.6442842647402673
aF0.1179452199049984
aF0.12370038800197491
aF0.2854682800097672
aF-2.0854926168212273e-05
aF0.10862160449642344
aF0.29804307358287696
aF0.4990867081515722
aF0.2199769280301509
aF0.1090023849192705
aF0.11136629050250857
aF0.3645394062253011
aF0.16906530707793843
aF-2.4528415905500367e-05
aF0.11122073661705523
aF0.31556578477648145
aF0.6431575032813184
aF0.21646676855160107
aF0.3892623796088257
aF0.3173613241931461
aF0.4321756895554092
aF0.2919529157942171
aF-3.37856262500047e-05
aF0.8180105911032522
aF0.021688871286471567
aF0.11085577579804395
aF0.08525430253661126
aF0.22973043898639522
aF0.11069506718038502
aF0.4291564538100059
aF0.1104256536584316
aF-3.128869891844133e-05
aF0.6659487001153503
aF0.19205778164574827
aF0.30057973046026154
aF0.712825763795597
aF0.1134731427103488
aF-1.6758007171713274e-05
aF-3.0825939548062564e-05
aF0.003765015552650297
aF-2.4559219807152033e-05
aF0.1578228222449467
aF0.1087999203586083
aF0.5547234503625962
aF-2.296719023231475e-05
aF-2.5164986508841025e-05
aF0.7466705979455659
aF0.3149105353244406
aF0.600778518241913
aF0.6118744794566546
aF-3.175004343525245e-05
aF0.25334775644941265
aF0.00033251707965797905
aF-2.7813544478227925e-05
aF0.658902051965542
aF0.016027297246928196
aF0.01769181734542613
aF0.3141146953167202
aF0.32261220024452264
aF0.1138862374282068
aF0.0009066326308735384
aF-2.6124429316265463e-05
aF0.0036569133086876704
aF0.4067898112968793
aF0.3184313275852695
aF-2.9037988159341666e-05
aF-3.483399950532373e-05
aF-2.3739581514803376e-05
aF0.32579116438392886
aF0.4959516872748697
aF0.875586166298743
aF-2.8447227259587038e-05
aF0.12627780784189913
aF-2.1165858739902177e-05
aF0.11189330539626852
aF-1.9071644278501054e-05
aF0.2473288544727721
aF0.06549831806760809
aF0.5764784099298068
aF0.604414066416826
aF0.24848578923350217
aF0.039141846018519555
aF0.11353007026774087
aF0.312592360710648
aF0.11061751019019228
aF0.23449666629717258
aF0.5270860926614414
aF0.7585008335075165
aF0.4437161909655578
aF0.37601139677608186
aF0.31625969013770305
aF0.12516538909510366
aF-2.8839836650806916e-05
aF1.0401826460519907
aF0.5886531996851163
aF0.6007726408833198
aF0.11046192416244871
aF0.12154594212550185
aF0.29773133205929936
aF0.4623279652667489
aF0.14428418102805018
aF0.5208646459832753
aF0.11478792747464439
aF0.11133489527080886
aF0.5170683236120697
aF0.01509926130892314
aF0.09920567540590541
aF0.10990868814889643
aF0.4901538771947731
aF0.4167346164385495
aF0.022962370073982274
aF0.6495403087372593
aF-2.5978087781819426e-05
aF0.5756455741759909
aF0.4178271712979935
aF0.40853134684755865
aF0.1113615669165835
aF0.5689403749454915
aF0.36095861864519874
aF0.2148204546981045
aF-3.1637636899617405e-05
aF-3.309581847421583e-05
aF0.6115171592429478
aF0.12203140864333628
aF0.21699523982736446
aF0.6687139819756847
aF0.24298795040649823
aF0.07486008562778856
aF-2.383972712527438e-05
aF-2.7193784424728307e-05
aF0.11353383212765822
aF0.016285341165533485
aF0.3422467388784005
aF0.7179689003266363
aF0.18206120257902247
aF0.32889806767051777
aF0.7390741102063654
aF0.12309375506458986
aF0.672366382686763
aF-3.3228254513240074e-05
aF0.3529744376399324
aF-3.294617796978372e-05
aF0.4958074994242123
aF0.2164368630197293
aF0.1688259748900749
aF0.6312901384297871
aF0.11201876314672043
aF0.722217426866087
aF0.018547155329302623
aF0.3909191467367239
aF0.560759080381203
aF0.0005024802263728922
aF0.5978867395683065
aF0.11710388262637039
aF-2.0069565506819487e-05
aF0.3273648927601598
aF-2.957822381066677e-05
aF0.01811623295263054
aF0.48147428947587345
aF0.4146022710414643
aF0.06484496113998928
aF0.4186178058185983
aF0.1103112034835938
aF0.28333487819106384
aF0.4645033767215079
aF0.12357164923725295
aF-3.085604450037138e-05
aF0.1261938723068159
aF0.11583248546350466
aF0.13555373331538734
aF0.29433981391371766
aF-1.3045261644695216e-05
aF-3.140404953905218e-05
aF0.31473697355683683
aF0.4659735558649114
aF0.620447370655151
aF0.12362771150755902
aF0.49236085601572155
aF0.21612228603284
aF0.3205485443892502
aF0.5150382520919559
aF0.1261137402270731
aF0.4548522994375226
aF0.6718023852984722
aF0.5011465036145615
aF0.22505450435756957
aF0.44773484410914444
aF0.003811533594483496
aF0.11129613659576476
aF0.006070179403123266
aF0.005556775367086431
aF0.31400465952633105
aF0.2549518470366885
aF0.01740503863262166
aF0.49374197946364395
aF-2.810288005328232e-05
aF0.016333559663522124
aF0.12501223152702634
aF0.2955455658962367
aF0.10909792034631582
aF0.04102369695229724
aF0.4942364036258575
aF0.5663731705202242
aF-3.259636699493029e-05
aF0.5386538808505961
aF0.4466134372804653
aF0.4084237905625647
aF0.6383850407768135
aF0.568036288961907
aF0.19358869182030736
aF0.5858931767444582
aF0.22835931290894562
aF0.7446191599421161
aF0.1492216037025913
aF0.21639208666710985
aF0.7664852784883616
aF0.11224127308064258
aF0.49408598394878434
aF0.2156900891392346
aF0.402072293172115
aF-1.9019697749644848e-05
aF0.6299281275771382
aF0.45364967290750746
aF0.11705668685763149
aF0.07374543495899255
aF0.24725657440188575
aF0.08807840810831769
aF1.0066097611209002
aF0.015349812057536383
aF0.5631199013205017
aF0.6071972981293139
aF0.33085334760615925
aF0.33166838172294666
aF0.3216169024249389
aF0.9756901836206855
aF-3.2657415627301845e-05
aF0.32920128586833686
aF0.1689826212869634
aF0.5193483703741659
aF0.49143957982257325
aF0.34446205558697507
aF0.21636829433114135
aF0.5842671141086453
aF0.6273376611646242
aF0.11367179294317609
aF0.42306915151498004
aF-2.5921468304268558e-05
aF0.5426926915082197
aF0.4351115908555445
aF0.0854968383655974
aF0.3174951831547963
aF0.3422970888969732
aF0.2228350108650612
aF0.5118380297774356
aF0.4782452129400627
aF0.01590119701888204
aF0.10848015783562426
aF0.48573311411883635
aF0.4855889346545501
aF0.7098713796838299
aF-2.7035621935400656e-05
aF-2.955662659065439e-05
aF0.4955636747705321
aF0.01574534623590651
aF0.3309909362197523
aF-2.8583658475245244e-05
aF0.11362850436877148
aF0.12327509075123633
aF0.3782458873821697
aF2.4794294095631386e-05
aF-3.458807197098679e-05
aF0.8565850849584469
aF0.6675876271035719
aF0.37702682245580377
aF0.6781916880805561
aF0.6258456368384819
aF-3.114322566011296e-05
aF0.4924314664663916
aF0.6182367838999601
aF0.07744138897720854
aF0.9109667703795048
aF0.09072633668745134
aF0.2927454878003184
aF0.32138129671092663
aF-2.4385294158157933e-05
aF0.1972966212234124
aF0.181867986954654
aF0.11212735429770504
aF0.5231399180080745
aF0.03908669552124122
aF0.5756994131329582
aF0.5697506621899877
aF0.01746251735467297
aF0.37654366621051993
aF0.006292573325712425
aF0.21657799568105807
aF0.6197505173620081
aF-3.196664559235174e-05
aF0.5889605140675833
aF-2.9498633219660064e-05
aF0.6688171875144895
aF0.5047030417803451
aF0.8937860515732652
aF0.8021068867966514
aF0.536480664608459
aF0.2916969559440572
aF0.784926598795681
aF0.407195872264444
aF0.21615681781944796
aF0.1247084440847459
aF0.6317007234366545
aF0.5236088143738957
aF-2.9028765451855065e-05
aF0.32493585047981455
aF-2.6156867370286108e-05
aF0.3906513133056366
aF0.3153006734208188
aF0.5058824915468851
aF0.5961460009589294
aF0.6620668906467455
aF0.22468034770005074
aF0.6175415472426846
aF-3.2017877419132645e-05
aF0.10862140289962152
aF0.11074997921731988
aF0.11275439999378234
aF0.11368409104003696
aF-2.8435508582003166e-05
aF0.26536289830581206
aF0.41066844220085397
aF0.2217381983521478
aF0.108504500162383
aF0.1483712360019318
aF0.44392529535326997
aF0.9295435191416006
aF-2.4633607590196505e-05
aF0.3185739532950751
aF0.21312107877234698
aF-2.661329183029082e-05
aF0.7063815253206767
aF0.40798856077708434
aF0.01715318907065333
aF-3.096237976851768e-05
aF0.1344517238303684
aF0.6643362534213662
aF0.24596577366875616
aF0.40778944946419715
aF0.49651322246552576
aF0.5109298684431147
aF0.7258001419769933
aF0.7879187633516151
aF0.6468176443391367
aF0.12249357394658489
aF0.16748020421428045
aF0.4139503544299066
aF0.6880161171535208
aF0.7839641636273456
aF0.7611495468590332
aF-3.446481985625027e-05
aF0.5965063645586977
aF0.8003978944558829
aF0.4490635710026094
aF0.41021668201793515
aF0.228956966876936
aF0.319167973352688
aF0.31713536250070407
aF0.11350955631289583
aF0.01536106416875116
aF0.6561224199683138
aF-2.671181796420896e-05
aF0.40770183477837874
aF0.4457136264734465
aF0.4863557799114493
aF0.11090937394334732
aF0.492345393683578
aF0.018735602930046724
aF-2.767986008533896e-05
aF0.3284361075883444
aF0.6281144833571135
aF0.5993776341976487
aF-3.476552650205633e-05
aF0.21589378897855482
aF0.7200367722576755
aF-1.867063709282135e-05
aF0.21622632063085634
aF0.3013467063630557
aF0.31637423282811206
aF0.24643771445289087
aF0.5589824655767139
aF0.5671294426009723
aF0.8665412659243525
aF0.46633729755517495
aF0.9984687187351287
aF-2.3278797932402284e-05
aF0.21436033255058407
aF-2.970172471883359e-05
aF0.40957591555366557
aF0.31219355959238637
aF-3.440123767095571e-05
aF0.6227817561352813
aF0.06595479007950411
aF0.21886886292191488
aF0.8323011884556171
aF0.1108516350873483
aF-2.6539086328103423e-05
aF0.4102445793896412
aF0.8930497649530946
aF0.48618873080223723
aF0.6576492590554066
aF0.791761165587352
aF0.1086515607572367
aF-2.13974392937466e-05
aF0.4251774782035298
aF0.21618096196293113
aF0.31355036255067503
aF0.4964721444258071
aF0.5646170163163622
aF0.7477191639782097
aF0.7175278989815808
aF-3.1380218481924516e-05
aF0.21904940835789155
aF0.27785210921806236
aF0.709128632718393
aF0.44642645246063717
aF0.11272370842398871
aF0.31380519292246944
aF0.6627384776067338
aF0.03759496497290149
aF0.4962639683419314
aF0.506444479883001
aF0.009455972698625192
aF0.13438024536131277
aF0.17065107939093105
aF0.15527454746936042
aF0.6119540383001905
aF0.8206664172015756
aF0.11482761440412137
aF0.015037842983310679
aF0.12548847977168665
aF0.8941016737135894
aF0.7779531672823339
aF0.17581103959102418
aF0.4032141885826177
aF0.016750904703910496
aF0.20340992357186538
aF0.4265493168680714
aF0.2873828741052282
aF-3.424410713659398e-05
aF0.6303558980503094
aF0.31222985281960147
aF0.31722973378876596
aF0.7099338003959819
aF-3.283241432816553e-05
aF0.5961660066100039
aF0.21643828099092355
aF0.34634757395584304
aF-2.91606225739649e-05
aF0.43121363468312124
aF0.6614985921997323
aF0.5873649598111403
aF0.13964032261291903
aF0.32803198094557473
aF0.016476737229579097
aF0.2813175380286812
aF0.7097699492489054
aF0.5188676218957946
aF-3.396428842350474e-05
aF0.19969967559895618
aF0.6640346365667411
aF0.43078226531411756
aF0.3248755855053176
aF-2.568568630190171e-05
aF0.3317239302160693
aF0.21630134179325777
aF0.413100773652308
aF0.6426098933533537
aF0.6095712076635302
aF0.6825801059642926
aF0.3214977498541085
aF0.6945673514443875
aF0.825741661818816
aF0.12838483875036255
aF-2.917295222681915e-05
aF0.549597358436277
aF0.4373691623871552
aF0.591500240149093
aF0.22749000712637146
aF0.31684091826139316
aF0.658117920684802
aF0.9178625633272088
aF0.442608420561426
aF0.718167985111958
aF0.5690032743118616
aF0.21596692087522928
aF0.27383584768261926
aF0.5962942906071853
aF0.5994423933278026
aF0.08264142995778023
aF0.24427495511257824
aF0.6366645834797562
aF0.368437313065451
aF0.23377120692180275
aF0.11126162025118935
aF0.3197212702504082
aF0.21591195497365545
aF0.11203016046147862
aF0.05046218686690418
aF-2.9301467638909173e-05
aF0.32456317666578105
aF0.4097974394376025
aF0.21940839705483262
aF0.3403299893118463
aF0.34408860448208367
aF0.3216306887831477
aF0.6526614714646275
aF0.6437386609361089
aF0.40919368111078613
aF-3.0778945526055423e-05
aF0.21617200339006626
aF0.12336719078813063
aF0.6609629211942489
aF-3.5013566635822e-05
aF0.7254235717259188
aF0.36913053490894576
aF0.3124548522201125
aF0.32577820131892254
aF0.11561465933556203
aF0.323932280352464
aF0.1497988909394925
aF0.3784943414735653
aF0.14702920343353254
aF0.7547386406452534
aF0.5300919060876765
aF0.1243119106591708
aF0.16076136105004224
aF0.42271102093997825
aF0.5601094533413957
aF0.27101188528375264
aF-2.8584807583609262e-05
aF0.558806655382118
aF0.29793753898861297
aF0.6640333337119921
aF0.29060698957632836
aF0.5655724885449045
aF0.7981176796244438
aF0.41524680986286056
aF0.6133177866578583
aF0.10920532543614092
aF0.544649147478907
aF0.4656213300045762
aF-3.358208366055493e-05
aF0.34849884702994194
aF0.5685346343971491
aF0.7114775804755116
aF-3.186897421292301e-05
aF0.2269092682122622
aF0.2833877682066932
aF0.11323314761343983
aF0.21670591658602856
aF0.6842093422733355
aF0.6642283673358027
aF0.6805708337239174
aF0.22119374856623697
aF0.8906731714570073
aF0.4183786433315704
aF0.16918529233953938
aF0.20024266365192744
aF0.31869139777517264
aF0.6659102883749526
aF0.6432425143567393
aF0.11248559962991322
aF0.28179508678711374
aF-1.6446902030065047e-05
aF0.5073811802147112
aF0.1259440572202477
aF0.02060978957570958
aF0.08764326827543734
aF0.7064872975245593
aF0.7407239955183798
aF0.37299844153075545
aF0.27618319231001154
aF0.15435757844486853
aF0.4939978127219953
aF-3.480632963936969e-05
aF0.04027255518620798
aF0.6700076872529177
aF0.5514365580720253
aF0.4884241892115475
aF0.6892596350661067
aF-3.134222805023512e-05
aF0.36397564473455635
aF0.4903235214735484
aF-2.8546056258349495e-05
aF0.6824346403857713
aF0.408707921802828
aF0.22793628625503493
aF0.6822907370129965
aF0.40656634854441975
aF0.26948085638388886
aF0.5903817358407673
aF0.3306494209600319
aF0.3168766278347648
aF0.49573453081006846
aF0.40166597041372043
aF0.6393969191987372
aF0.4160061930234593
aF0.6769246763893944
aF-3.3383541655052085e-05
aF-2.9362786249986783e-05
aF0.2181013066134736
aF0.3352389100184019
aF0.1241087014847655
aF-3.254343864655951e-05
aF0.11256231833492647
aF0.645856208958115
aF0.11014780497801979
aF0.4902460566421687
aF0.4069413987487187
aF-3.416318962612408e-05
aF0.6782616528554195
aF0.6940170937155044
aF-3.2579696412238235e-05
aF0.014248357723102512
aF0.4064897463350712
aF0.5155126628619242
aF-3.322905866021131e-05
aF0.6356985742125225
aF0.35587425883161217
aF0.4880545373129048
aF0.6746502635314613
aF0.4054591568127721
aF0.40038690602319615
aF0.11559156138932325
aF0.7897410346420348
aF0.16585093676298124
aF0.16406262506773706
aF-2.390060175905262e-05
aF-3.436442142756846e-05
aF0.3481477484085622
aF0.8364938074824373
aF0.21621481885503213
aF0.6530925594185502
aF0.12457552777453351
aF0.6517852850590513
aF0.5915192917795227
aF0.14816499517987625
aF0.11306823154796453
aF0.3322120146564167
aF0.6484099913317309
aF-2.2048826713749747e-05
aF0.31337877794671165
aF-3.361473965401984e-05
aF0.6749500476517811
aF-3.3860942090235824e-05
aF0.5138284134524276
aF0.7214394070720935
aF0.14473816159930175
aF0.7230515473726324
aF0.6491992811125851
aF0.6608526375364105
aF0.2979912982635442
aF0.41135130358088023
aF0.513295950735321
aF0.3232769443736183
aF0.3796787431671893
aF0.22580016926593016
aF0.6691144925813206
aF0.6403699991515936
aF0.4033080444140671
aF0.7862653544975462
aF0.6745699098504572
aF0.4057232696851214
aF0.4074194635200685
aF0.014932880245099422
aF0.22038761610625635
aF0.03762588957811808
aF0.534722925039087
aF0.08858084282738021
aF0.5512511077687576
aF0.610723154649722
aF0.665504725592204
aF0.12158504799781955
aF0.31262090187007807
aF0.216104873139634
aF0.48904677872268154
aF0.48788501399032924
aF0.18903794945025165
aF0.3742297341529315
aF0.31076691452752137
aF0.41925432019460596
aF0.551928815940304
aF0.21932578179552786
aF0.1288092150586233
aF0.7041348397041429
aF0.7011177174705145
aF0.11363257211778555
aF0.11038343250930938
aF0.11046732639465429
aF0.3342612838424297
aF0.7199323924831744
aF0.7223076249532001
aF0.7083752771905507
aF0.3147492470402944
aF0.9557122434886733
aF-2.812885943503929e-05
aF0.27358892052097206
aF0.7094712349499379
aF-2.7045927526003766e-05
aF0.8149888569232506
aF0.6541810928383569
aF0.5241168244224639
aF0.36900595099670186
aF0.40459813378929654
aF0.12412219194873853
aF0.21610850974810614
aF0.7019619217613631
aF-3.2272451692794135e-05
aF0.11100714605051643
aF0.2501293557245936
aF0.3177095616132468
aF0.14756465310467393
aF0.00800496212191426
aF0.11254382124898576
aF0.6756096774229099
aF0.11132021735419695
aF0.9876757373079004
aF0.2667772074596164
aF0.5490908196896243
aF0.4795684423390343
aF0.11165703108805491
aF-3.313940274152216e-05
aF0.1121151199447179
aF0.6621790126166496
aF0.017421715254335446
aF0.5206485236148839
aF0.039512845966871435
aF0.6587662279885502
aF0.6848841154252483
aF0.3177065462566606
aF0.8234186313126997
aF0.4066106082727372
aF0.1138835192925467
aF0.1700648715669293
aF0.11081209677956272
aF-2.7213571679673976e-05
aF0.31667379456211053
aF0.6548640090327655
aF0.7175951588589227
aF0.40912759884275296
aF0.591282472466057
aF0.7231698722258351
aF0.32786661080346047
aF0.25529076449213317
aF0.12385693243708396
aF0.21536333500020133
aF0.8178407185392391
aF0.36896774234071383
aF0.7135322600057976
aF0.11036134178653034
aF0.6439718988350305
aF0.41369995027025475
aF0.5017642440138808
aF0.01662187687579575
aF0.6736934578375076
aF0.2153019032321657
aF0.3734759429930201
aF0.6545049582059592
aF0.21594935455111575
aF0.3175086635541051
aF0.11189103314237148
aF-1.5865164594952574e-05
aF0.3031545322981173
aF0.11092080680402994
aF0.7200830769530446
aF0.1086536746981217
aF0.7168904021593137
aF0.2190799581365619
aF0.6619603911648393
aF0.3132377302130931
aF0.659896546904652
aF0.5045616788353873
aF0.039600120876317924
aF1.0178930822588552
aF0.8013194371749734
aF0.6151599517179527
aF0.3158350594812669
aF0.7167349863577575
aF0.7238434244565695
aF0.11390822262182443
aF0.5981213883552852
aF-2.9455157655178255e-05
aF0.6719075814623978
aF0.6354179425541719
aF0.36381141434448017
aF0.7304013568166963
aF0.21626770403950601
aF0.10834125068385925
aF0.7562561992413857
aF0.5279382657661458
aF0.6731992951997805
aF0.6724608045638427
aF0.7259265629797413
aF0.9644493033148036
aF0.11344758159345902
aF0.6239060894339294
aF0.680131854356596
aF0.2782457985218856
aF-1.4592469732122026e-05
aF0.017287764586524812
aF0.3312707935442698
aF0.1714175048921298
aF0.7617731429406005
aF0.2718261500261008
aF0.1301078785537344
aF0.04518546583712579
aF0.14765957881731628
aF0.4637887038075341
aF-2.819488953420546e-05
aF0.6013871034375198
aF0.44260345557837244
aF0.6319718309682067
aF0.66677519494091
aF0.36561872765652836
aF0.5186630604188611
aF0.6198907005602323
aF0.4970921574046132
aF0.7137059261483691
aF-2.7133145301228012e-05
aF0.17175192454208243
aF0.7399294439168727
aF0.12353071611292066
aF0.40477772028719405
aF0.6724355431728224
aF0.6726747250814382
aF0.7190611485627536
aF0.0012483213521363723
aF0.6621435052620401
aF0.515193638158034
aF0.4990219414284258
aF0.1102127242845441
aF0.7094642444986712
aF0.11095819234212145
aF0.5538572202265919
aF0.5521654027767653
aF0.7037936407681111
aF0.7221272585639222
aF0.49531204278384955
aF0.508707440761365
aF0.6337354894330463
aF0.714299657749625
aF0.11230790861677331
aF0.7252334053334941
aF0.7121140901404237
aF0.0847468942202223
aF0.6176210690428796
aF0.7153993600029831
aF0.7360075941100317
aF0.7146022178212412
aF0.1445525683689559
aF0.22023840826459784
aF0.662329364843619
aF0.6634042110641682
aF0.503781289676112
aF0.03824725364402504
aF0.3510455938862287
aF0.37796179646800043
aF0.246475490343542
aF0.6570402242149656
aF-2.8235176542157348e-05
aF0.04016879329965617
aF0.6758847069182794
aF0.08382685154882541
aF0.17003100414466044
aF0.015899095428815624
aF0.9522336063382717
aF0.4331995808020248
aF0.4168318342524988
aF-3.101776242564469e-05
aF0.9233513759249887
aF0.6645890481034997
aF0.5202354655867785
aF0.6643152284936966
aF0.21427361871344575
aF0.6064373111085071
aF-1.904781535611022e-05
aF0.6750572275012114
aF0.6607118916106751
aF0.607353243331394
aF0.663986984674604
aF0.49723883889239673
aF0.6986725531095739
aF0.6697038696354247
aF0.4899433523393464
aF-3.375568606145407e-05
aF-3.277023498737819e-05
aF0.4070317621391566
aF0.27909746412517045
aF0.7156784241504837
aF0.4913093394952526
aF0.07046585957585805
aF0.4695989582310136
aF0.8309647587472049
aF0.23075029288740723
aF0.31447454350465476
aF0.49425645030614707
aF0.5675837828254049
aF0.8167829514132219
aF0.49338306564100476
aF0.6718429975266105
aF0.8204041740494965
aF0.838907552570801
aF0.6555292256846434
aF0.6257959592260502
aF0.6052157060810233
aF0.5412160358732585
aF0.46804638421726175
aF0.2139593289327264
aF0.12351282455812873
aF1.0808104136094032
aF0.6213686668050324
aF0.7115374738284226
aF0.37537365983855864
aF0.508997396321968
aF0.1989802962975813
aF0.4984170141776594
aF0.11344310156093007
aF0.12469630425224265
aF0.7181062364074573
aF0.6983426762467762
aF0.2558146464161899
aF0.24119264494454784
aF0.2198781025131491
aF0.34018910909158073
aF0.9091242981942704
aF0.6868714721585749
aF0.7567491088507929
aF0.4912483454412562
aF0.5544611828418522
aF0.5065759167898927
aF0.31917998563098227
aF0.2162848688263579
aF0.35161899036011235
aF-3.016721755333407e-05
aF0.4883035461580958
aF0.16630717688243735
aF0.7018024589011151
aF0.6772029779665094
aF0.11222578751853662
aF0.009543817185359238
aF0.6273379663269645
aF0.315452798077549
aF0.5617200266068343
aF0.788247651574598
aF0.6740731488323735
aF0.10847661589806457
aF0.7532391207777036
aF-3.0238356690137635e-05
aF0.7825895588526968
aF0.7550059859347336
aF0.0776321550686041
aF0.488167534156998
aF0.3996151763871594
aF0.8346883870218078
aF-3.434499468379926e-05
aF0.32191024958636616
aF0.2963367450116925
aF0.6995615955277557
aF0.7914161851704731
aF0.9286095667764895
aF0.5731011622270623
aF0.622836456073955
aF0.6849554062930703
aF0.5829197597849336
aF0.7843539023955755
aF0.4987056857620442
aF0.42313308680202955
aF0.4877737611362125
aF0.7538050173253477
aF0.4577626486093185
aF0.7715480994604746
aF0.13253950484759258
aF0.49939474789293925
aF0.1440945976642447
aF0.3069155022587218
aF0.41132152341407036
aF0.07507709033873278
aF0.4884089653759376
aF0.3373601153989161
aF0.3096939578261759
aF0.32740784473793116
aF0.42516801573997354
aF0.4348694873030685
aF0.13992236184275564
aF0.580368759483938
aF0.4475394071020746
aF0.6112667073636149
aF0.569113596265709
aF0.7509611415841042
aF0.8971277365385952
aF0.9969761957806069
aF0.7105095477801684
aF0.35492974557060997
aF0.8158180543761651
aF0.48810423189550933
aF0.34674911431639455
aF0.33775647155805855
aF0.20227372275038125
aF-2.9928777793841732e-05
aF0.7402402285883327
aF0.526838426934209
aF0.7189818498387428
aF0.6771106113384389
aF0.6978611564090977
aF0.834287328396289
aF0.4418536354939313
aF0.6260048584678723
aF0.07051941505809456
aF0.696403582897593
aF0.704111432249797
aF0.187438798151768
aF0.2625228311572041
aF0.7718197679030467
aF0.15441908252697711
aF0.31162379269873197
aF0.7084599246740546
aF0.5302516339039247
aF0.2878466618826132
aF0.9306216960212361
aF0.7787328604543196
aF0.7418001640499741
aF0.8362035288588872
aF-3.220229689038234e-05
aF0.6420127818011094
aF0.2784464630006891
aF0.635223494748582
aF0.6947676242419343
aF0.1335926277501578
aF0.09161970973051847
aF0.4840300226039891
aF0.700736102788639
aF0.48951785765504185
aF0.13254513087801678
aF0.29733309385745077
aF0.12874029810088672
aF0.6889731658479508
aF0.2537718147079713
aF0.43448626799936996
aF0.9349094318029403
aF0.2505667380157166
aF0.7380865091819047
aF0.15257206808831114
aF0.7058697475295626
aF0.6354803899111783
aF-2.0808981643138935e-05
aF0.7009153892153157
aF0.8655115635410904
aF0.5335992489475565
aF0.15078908674458757
aF-5.32723695823023e-06
aF0.7708595454585905
aF0.7998446726931063
aF0.409042469938802
aF0.704316591543448
aF0.7867769354954053
aF0.3545712365775455
aF0.4091911988244168
aF-3.271009468575059e-05
aF0.39977728234654375
aF0.8276421433869925
aF0.7454534350926698
aF0.7094218649223039
aF0.35880415291093337
aF0.8214622405157659
aF0.6575449816849317
aF0.5919083058911228
aF0.15468374461445622
aF0.14505591355839265
aF0.06477072952223217
aF0.12888307170098434
aF-2.296806143231578e-05
aF0.7925340045449802
aF0.4221163919593618
aF0.8371423347205016
aF0.2466295782626977
aF0.3191253521897117
aF0.3229189929208003
aF0.8029659716939026
aF0.6908083963970668
aF0.431560767710665
aF0.18961238318200646
aF0.7617274777905125
aF0.0038522903235231887
aF0.08560985028419932
aF0.4452756869146075
aF0.4338964811082566
aF0.28757270491876374
aF0.2496008890721093
aF0.8986818727912764
aF0.5454355158813757
aF0.6420509280105247
aF0.6263181491905141
aF0.39983504439713347
aF0.07820785072832548
aF0.20064311171013127
aF0.5346142579562891
aF0.7957727043072369
aF0.08315016418764287
aF0.7518378045678427
aF0.24834901690686406
aF0.6199969461989081
aF0.26790703859753195
aF0.13913670564596536
aF0.2448647256794252
aF0.40269468381247586
aF0.5517052571249739
aF0.32560760406307
aF0.4290338114592722
aF0.831867538681617
aF0.6531885878326915
aF0.6750275873091245
aF0.8983572271836824
aF0.781571324901075
aF0.07401731379292986
aF0.25430264215742593
aF0.1961870080747703
aF0.44419459282996643
aF0.7918524099827593
aF0.1021941960432855
aF0.7757114020437501
aF0.23954851276502032
aF0.710409255024925
aF0.7115142092446476
aF0.27218322416583796
aF0.4236668338272205
aF-3.275602686825252e-05
aF0.7357118191125602
aF0.7678518141812938
aF0.37609420828094065
aF-3.100857172455562e-05
aF0.22855476822241938
aF0.3088661410652529
aF0.7380820855669343
aF0.23538122895075997
aF0.7510037170404535
aF0.33902563797661767
aF0.8303846770696217
aF0.24825466783164218
aF0.5271487126168526
aF0.31971756209484203
aF0.5360534718170711
aF0.0705163603183987
aF0.47420944946011634
aF0.19956551261579758
aF0.6812776820898301
aF0.19004841303433517
aF0.2473628680286577
aF0.7163680624939004
aF0.20029323160047108
aF0.17195673495498287
aF-2.409517978696485e-05
aF0.7060442206335193
aF0.24314929430772958
aF0.7803811596563697
aF0.8587625323638455
aF0.8208083529992942
aF0.8375988861282258
aF0.13268831792414026
aF0.8928874724977769
aF0.7922765625795019
aF0.4290851421100088
aF0.9327554110548393
aF0.06634812582668115
aF0.8069892312223472
aF0.5796507765836596
aF0.7517901913673728
aF0.17415134685576739
aF0.6994584824735877
aF0.7075617886106338
aF0.06638060770776066
aF0.7385856179938859
aF0.36262457447447094
aF0.7765015837236549
aF0.9843873997437131
aF-2.194979551228826e-05
aF0.3162552187085059
aF0.07831111898603504
aF0.8253910317167414
aF0.194172297292313
aF0.7276079507137498
aF0.06518392183118538
aF0.7094200771298209
aF0.39111781537234425
aF0.010005414826777415
aF0.7667668515670334
aF0.0708016268505367
aF0.7000253213922445
aF0.3517678359012044
aF0.12734558619406267
aF0.7123269817773172
aF0.8250484530767763
aF0.6975347741503763
aF0.8063718401344504
aF0.4243235685274942
aF0.4817688895806742
aF0.824498630543522
aF0.7607776867648814
aF0.34362913375731896
aF0.6989251947337509
aF0.13719750740201242
aF0.7277203939423575
aF0.5072467150736197
aF0.2880636457133945
aF0.5749003753282977
aF0.19086432643547147
aF0.9070882242985525
aF0.7652768475335909
aF0.7279405046425418
aF0.8267021046963712
aF0.21969918436871172
aF0.8429922197028521
aF0.6342994911092505
aF0.7421824994647346
aF0.7053956511764281
aF0.7644162957463569
aF0.37856975327248676
aF0.732745552369233
aF-1.6075369635881742e-05
aF0.40948007986069035
aF0.7955052530016609
aF0.3944362847661975
aF0.07912388699964845
aF0.43462412595692035
aF0.18934225967150864
aF0.8359671765896404
aF0.12910851078042285
aF0.7301061504412751
aF0.816480958445462
aF0.6488468964688403
aF0.8450494295397402
aF0.7539429691170207
aF0.3992553907821854
aF0.529072666677993
aF0.3759558881093761
aF0.8398230207073065
aF-2.4787648252200256e-05
aF0.8967232410356409
aF0.8936303214559622
aF0.5399392013163777
aF0.5871376717662011
aF0.8181468856726832
aF0.5376481552974619
aF0.6948638093241439
aF0.24755114430421354
aF0.7144579273892493
aF0.8227354565504617
aF0.8211830803460956
aF0.4856264781484452
aF0.25180718339873565
aF0.14018666272295244
aF0.06656341549471678
aF0.14050226515804676
aF0.7939394097756489
aF0.20541599170649505
aF0.11209431810996096
aF0.06661541890164369
aF0.77997471024673
aF0.7845883170030175
aF0.5155732828936892
aF0.8122203923757412
aF0.7158056807801585
aF0.9730414686632969
aF0.2515435496880811
aF0.3055859338880098
aF0.07817679902047203
aF0.7996267249412186
aF0.8152149370221125
aF0.1891908752521405
aF0.4620797307587501
aF0.6495174389850824
aF0.5363795012056349
aF0.7457188656590557
aF0.19016234046749148
aF0.31212044700194896
aF0.8192144833073898
aF0.018565520056211593
aF0.13171761621205125
aF0.7578192751782291
aF0.3024425879484687
aF0.17318541559091116
aF0.14051741671825724
aF-3.1528947514125605e-05
aF0.7066631048945284
aF0.45862251570146473
aF-2.9171744199807392e-05
aF0.5142745707111933
aF0.7833352055098581
aF0.43764266195196866
aF0.8128427047184408
aF0.6692867364786457
aF0.309917095274455
aF0.3861026334964106
aF0.7464037364692264
aF0.7364093458431373
aF0.6244835682660281
aF0.7842347987384759
aF0.07130695154287636
aF0.7175924968617822
aF0.8836282893025023
aF0.9270266404432888
aF0.7131158731879359
aF0.7954791228994487
aF0.3827566959997024
aF0.0752184867174357
aF0.12505204009103998
aF0.13979342276870454
aF0.3800690284310426
aF0.48754989888104827
aF0.6136252400775697
aF0.7780403812350598
aF0.6663155293563578
aF0.3204336061985469
aF0.6486401396615298
aF0.2927339562499047
aF0.824230809258351
aF0.017984304157802278
aF0.7690688293615602
aF0.8452862153051517
aF0.5933682354828562
aF0.12746160393587802
aF-2.9737940940410823e-05
aF0.7738863474863766
aF0.8382782364665085
aF0.7054545975740472
aF0.07905044055558275
aF0.6991002491740907
aF0.6957452940187787
aF0.7022458628031085
aF0.5158548544323982
aF0.30176224662324724
aF0.3148854348600918
aF0.7042666250237346
aF0.6379378726600491
aF0.884454529085029
aF0.574124935862006
aF0.3110001271304048
aF0.8094609564540676
aF0.739866663014952
aF0.542189443499467
aF0.4869038741381506
aF-2.388681777798496e-05
aF0.3729558482501054
aF0.08535387970970776
aF0.41810893239711344
aF0.2670589651387232
aF0.7924254825128663
aF0.884462230995732
aF0.4119233545708427
aF-3.421218556143302e-05
aF0.771102000173554
aF0.6900027356573633
aF0.6148046701586027
aF0.3842693495213325
aF0.2552646869283097
aF0.5379273372520932
aF0.24955487807073728
aF0.6159855142414359
aF0.81913360084648
aF0.647974778762614
aF0.5829449725316191
aF0.8500022678455736
aF0.040638305312977074
aF0.1753830631203641
aF0.7666680541666122
aF0.8524519430614812
aF0.5347001094740995
aF0.6785597024981964
aF0.39929309002098456
aF0.1281218490135454
aF0.24872969412253143
aF0.516653209406817
aF0.8623682072164729
aF0.5729483460231015
aF0.12898249540795925
aF0.5308142040627972
aF0.7957952898551848
aF0.061963614116739674
aF-3.161653968142275e-05
aF0.13901624189077033
aF0.6369312365120678
aF0.7244572041382109
aF0.6454762991445802
aF0.13869873740470906
aF0.128525515329315
aF0.8704837201599367
aF0.6984272000886933
aF0.34893736407661136
aF0.6278969760282749
aF0.12557470776262036
aF0.6115351998120593
aF0.47329333385373706
aF0.8060747386408065
aF0.8374443187525391
aF0.4269526849500247
aF0.7197947900978261
aF0.7449983588214986
aF0.01684891363768326
aF0.3444219412969276
aF0.18771507587622516
aF0.5772461104542188
aF0.13933920017506685
aF0.2984311980417007
aF0.7900870387747636
aF0.642592007959744
aF0.793205092717935
aF0.16732363547850815
aF0.8508642557532466
aF0.4941524471906611
aF0.4270577660561319
aF0.23744248114199573
aF0.4501742465890439
aF0.41587993440619186
aF0.36665944943765894
aF0.3995955888390066
aF0.5268736014216366
aF0.520596380136185
aF-3.523147515505087e-05
aF0.19513889039036547
aF0.08321791551615254
aF0.2634050420850538
aF0.45477945242259343
aF0.28932503766281314
aF0.47271640145731864
aF0.48042522795026477
aF0.6551509864888265
aF0.6770529750297687
aF0.3573899070241837
aF-2.7234563147349178e-05
aF0.06526395113442929
aF0.8916635502025589
aF0.7550893863249906
aF0.8430842334571405
aF0.11367860645107353
aF0.5574524194114785
aF0.3716655752657325
aF0.14075988218234636
aF0.7084151992869869
aF0.561050190388888
aF0.3801447710226258
aF0.4242927278387003
aF0.5700028983226755
aF0.8715923138691495
aF0.11064496684333447
aF0.36278708344179833
aF0.6135646922199185
aF0.13359496394723047
aF0.870571979532067
aF0.762938791172636
aF0.7948716911968718
aF0.6918504764032374
aF0.4029862466915528
aF0.4870295801657014
aF0.8018278188275798
aF0.6277376487201383
aF0.07363739711470618
aF0.7230373094009543
aF0.11060100790292049
aF0.2044670891340985
aF0.8073793249483665
aF0.5944302172551859
aF0.20050253799551188
aF0.008543011825762559
aF0.8204032359573499
aF-3.337244374845838e-05
aF0.2629042105683541
aF0.20437511715546774
aF-3.309392707562253e-05
aF0.5868574404520714
aF0.218403347184966
aF0.24435893680694454
aF0.2534822878958751
aF0.07777731301650048
aF0.6995557916240616
aF0.8281817324594045
aF0.6574939473531436
aF0.760401310620304
aF0.7805214332833055
aF0.1385254371849194
aF0.7558654524725896
aF0.18660938106900948
aF0.06205386488574893
aF0.1924068239927368
aF0.6986647821922731
aF0.6966802951805069
aF0.32463172124228246
aF0.26829103964408896
aF0.6444946346480438
aF0.7319956458250068
aF0.20763759582637764
aF-2.9706132474771607e-05
aF0.8371114073531785
aF0.4920702199382774
aF0.7130642320154963
aF0.6863969224296764
aF0.2512698496166865
aF0.6067447808341537
aF0.7908359686580733
aF0.9729711838300918
aF0.07927523613760146
aF0.13014710008335983
aF0.27893699292510643
aF0.7029848037650632
aF0.5010281461273736
aF0.819777843664284
aF0.6209912296125957
aF0.646298448471772
aF0.48094422476147525
aF0.07938998989450319
aF0.302176986059735
aF0.7936749028561794
aF0.72963499563595
aF0.37167223558960094
aF0.4977137465568333
aF0.3695143500115239
aF0.5117807360503956
aF0.6178203431614029
aF0.6874538242770587
aF0.9126319315976446
aF0.37546543216996264
aF0.48256237669393354
aF0.1392137338418462
aF0.6998410799086665
aF0.7261175491592904
aF0.314749498130277
aF0.22923420622712776
aF0.31772627309590096
aF0.3764755426954749
aF0.34982386306902447
aF0.7120273453056698
aF0.500655246889949
aF0.5812569666243488
aF0.8194624983886007
aF0.6664787913891779
aF0.6253343170893966
aF0.6991448633972803
aF0.6844844701624733
aF0.628970541167345
aF0.6410764388275414
aF0.07698633405768351
aF0.9226288789975374
aF0.5275553242553168
aF0.9364508448344084
aF0.7106562097019244
aF0.20566662273982095
aF0.5300736364167977
aF0.5209063794616116
aF0.7275221026686469
aF0.017393266021847875
aF0.18913588342359366
aF0.20362801791470853
aF0.008485735878962064
aF0.7799270430216696
aF0.8394574817746876
aF0.7697627975062002
aF0.07080348345830734
aF0.25118736030342914
aF0.5896846394405517
aF0.11029393242097418
aF0.8415291321532785
aF-3.204687187174926e-05
aF0.7007285634108902
aF0.6945161100286965
aF0.24612364956712662
aF0.956928115217798
aF0.621623117173209
aF0.24998235614843667
aF0.7396547124955024
aF0.21636823718310705
aF0.7932500838156868
aF0.07675643076653182
aF0.31211993179642317
aF0.7113737375110305
aF0.19512774402439126
aF0.6812706171694893
aF0.4185620633437863
aF0.3508884462118407
aF0.340907307102738
aF0.06545023654682725
aF-2.9920560925322803e-05
aF0.18824097756617686
aF0.7035181796285865
aF0.26626120394176267
aF0.5922326353060794
aF0.18991623740536312
aF0.002430926305901693
aF0.7067287986911048
aF0.2499590553975617
aF0.671042413513395
aF0.6651589397802122
aF0.6950278443676448
aF0.7003686352105816
aF0.3212702034953989
aF0.8203344108564443
aF0.07985209091157097
aF-3.273759705368917e-05
aF0.7059497762344091
aF0.7009645470235344
aF0.07070582163825101
aF0.2839441864990495
aF0.32083359363958186
aF0.5824841140059762
aF0.19406316270285817
aF0.702984699132331
aF0.7724339814003005
aF0.7126394040648263
aF0.47672103023742407
aF0.796952151862691
aF0.7868274983235124
aF0.7615257311277279
aF0.1350256438200037
aF0.18965133427567338
aF0.6932416034167335
aF0.762808378597462
aF0.7311749167429786
aF0.3047241279108577
aF0.680463182752201
aF0.7696931707622925
aF0.42808572984363114
aF0.35286183290469086
aF0.48355845624729055
aF0.7384104901943829
aF0.6006697224772455
aF0.062483572997872994
aF-3.0772781866250654e-05
aF0.6355302105344394
aF0.8542888413382439
aF0.7476320271583119
aF0.17669209162349198
aF0.5442699428234468
aF0.9689243700294434
aF0.5872632688357404
aF0.7019263009911141
aF0.6205416473298224
aF0.707138474122627
aF0.7103559965285884
aF0.5222093373460162
aF0.49186818991600845
aF0.08514464152832169
aF0.04241339780331854
aF0.1661161846976058
aF0.0411227673884742
aF0.042402847668388866
aF0.13666220487722924
aF0.04238507718096418
aF0.04239666591080482
aF0.5573255583497985
aF0.8796553312396438
aF0.4839154779441204
aF0.7549973908953085
aF0.32886757725399374
aF0.4839959126802036
aF0.37304092716195214
aF-3.043540373637299e-05
aF0.5516045377476368
aF0.404013461500353
aF0.14947080773048826
aF0.08202540163841432
aF0.4846358003017528
aF0.8844091693926743
aF0.9007227909233566
aF0.3842767686619064
aF0.18647848186602722
aF0.7075705113354482
aF0.5952632517759207
aF0.7152514713371003
aF0.521733423887623
aF0.7608399069330454
aF0.0034704645613943264
aF0.132993755453791
aF0.5200819709564701
aF0.44610928032355046
aF0.6585627129028615
aF0.5342066013032825
aF0.1899604523642222
aF0.14034025656578208
aF-3.1635541561048086e-05
aF0.4873308705719732
aF0.18942210873031362
aF0.48989074426976487
aF0.7089805249350376
aF0.7762234172221669
aF-3.189645847667677e-05
aF0.7718921331696711
aF0.30567711656908214
aF0.7613298229549699
aF0.4587070245059435
aF0.18664504091152434
aF0.7604512847376586
aF0.7100991258985121
aF-2.8170861533283187e-05
aF0.32617591921288813
aF0.26469291766329617
aF0.1469059076777044
aF0.9202616499611214
aF0.6708501547963857
aF0.7528473958810569
aF0.12855036305167822
aF0.5872128858327019
aF0.706844756403195
aF0.13231948931397186
aF0.5900332617082862
aF0.756498842268702
aF0.8697019501792917
aF0.07986503340929874
aF0.42175901693634854
aF0.715951771572457
aF0.8004359830601131
aF0.06972155751114162
aF0.6391690605171583
aF0.22413588669792306
aF-2.525070712877664e-05
aF0.19008418578102848
aF0.3156437164088186
aF0.7836331325092076
aF0.6208113246502878
aF0.6034113340291585
aF0.591268627226686
aF0.2563369363885877
aF0.7016140679128031
aF0.6742441418249236
aF0.37618368928619494
aF0.13426622573195424
aF0.7790175445006025
aF0.7251993002811701
aF0.7652599395602349
aF0.37452429991523006
aF0.7967065660573693
aF0.13247249947267203
aF0.8017129691087952
aF0.6149718414287979
aF0.9001240600603397
aF0.1395021213513652
aF0.784807978013164
aF0.6927171204990832
aF0.7071888383975002
aF0.10089967605828676
aF0.7218490137872391
aF0.07963184473217044
aF0.708812532878988
aF0.536277080334163
aF0.12872407224593418
aF0.5294654335810285
aF0.61855164735845
aF0.7007378663551131
aF0.2199086486078965
aF0.7251829984681621
aF0.3851214864146999
aF0.7131537783062791
aF0.5351590222510105
aF0.6923979314298783
aF0.8156706913407397
aF0.28563963366799383
aF0.577676935662534
aF0.016948511155796542
aF0.6995382617338888
aF0.07079783653639593
aF0.18532483709259928
aF0.6873947374224301
aF0.1292204318316621
aF0.3619662822784653
aF0.3836132071071705
aF0.816796524013895
aF0.705931577048593
aF0.7987741289141503
aF0.7068989537185701
aF0.37391127247033085
aF0.7687939058961248
aF0.4149737344133322
aF0.07510837921785285
aF0.2780828703936784
aF0.07088185644064016
aF0.3401876748701329
aF0.715703111499153
aF0.6067948927302242
aF0.5001623212493547
aF0.08816410709934264
aF0.6322493470988348
aF0.6802274142029447
aF0.07772912126708054
aF0.37368883188265967
aF0.42425044699261827
aF0.7574323032038399
aF0.7514257153365036
aF0.14999065452241034
aF0.7566399189467412
aF0.32220878391762753
aF0.6592489019740042
aF0.06500405696593692
aF0.6992724884272103
aF0.5843391778080793
aF0.7017251514262659
aF0.6428680750850413
aF0.2579946175247141
aF0.25136128422297777
aF0.5585212387032352
aF0.6985173798339566
aF0.6079326496462096
aF1.1984150772348379
aF0.6092975265121043
aF0.6067684612468778
aF0.5206450685592103
aF0.6051234414328595
aF0.6047284491043969
aF0.42919934266810467
aF0.11806156261961442
aF1.085996012089013
aF0.7927493206758185
aF0.31342133529386773
aF0.8060712404776762
aF0.721157113366726
aF0.30865825849135486
aF0.9551384341803133
aF0.6234636293859537
aF0.6699522727200722
aF0.668557706817217
aF0.23847795017649887
aF0.5342221857111769
aF-3.341418495672599e-05
aF0.4354228114904668
aF0.7016453161514526
aF1.1821190379509194
aF0.1920628948455052
aF0.5709652422843625
aF0.25200161207054084
aF0.35906470946872204
aF0.29346763675557197
aF0.2951738821999723
aF0.2164185828052525
aF0.7706117443623031
aF0.7035548030325804
aF0.8539391642064302
aF0.02024700693645043
aF0.6974751224948754
aF0.633756210401041
aF0.314031582915117
aF0.34959741510268216
aF0.6402745208911682
aF0.5281742130602152
aF0.7217257759946132
aF0.7105655559304935
aF0.5760337965201052
aF0.07736305486082085
aF0.4240046543255467
aF0.2489375374789824
aF0.7086597487235715
aF0.004252814291468621
aF0.6983160305231952
aF0.6984080430954616
aF0.5920058269701856
aF0.07019722930670635
aF0.6605985911934789
aF0.1924294437647993
aF-3.274575364509147e-05
aF-3.0252836516364567e-05
aF0.3092914423650561
aF0.6970310275322027
aF0.7958788642887438
aF0.8651169172906354
aF0.25793231156799923
aF0.1897932335264927
aF0.009609996710446822
aF0.09074790796558574
aF0.544282685738581
aF0.06505876938488253
aF0.7187464626677853
aF0.6240623155706224
aF0.20058231381539882
aF0.7147644723909763
aF0.4846289187623043
aF0.7133011477954887
aF0.6999078107520171
aF0.6534438060700367
aF0.7821556676628498
aF0.38943877867563526
aF0.2921431819585596
aF0.75572166703666
aF0.7528310792213202
aF0.30989388980092825
aF0.12848758081380618
aF0.7047381137503002
aF-3.2939847265822664e-05
aF0.07747967602965877
aF0.25165114952630363
aF0.485889264118033
aF0.2012258711860957
aF0.6866908092282289
aF0.7004983010127961
aF0.19807827270292888
aF0.19027349671430738
aF0.19764786363954556
aF0.7038341456621597
aF0.709668109626445
aF0.4331895772317056
aF0.9644678219197909
aF0.3643902487213664
aF0.5315376680340353
aF0.3129932840961964
aF0.4880691757876878
aF0.7702016849881752
aF0.7467245868490813
aF-2.671215454919107e-05
aF0.699214243334199
aF0.7003083499902729
aF0.42378301806974905
aF0.69998819904231
aF0.1379289721265753
aF0.7024570063795426
aF0.5357498874075248
aF0.5909437241594389
aF0.017462943158292
aF0.38370932740458263
aF0.4318905685074954
aF0.836035782487385
aF0.7583534995690369
aF0.00927915063663809
aF0.7623404883389631
aF0.06628219026887994
aF0.6263099134398247
aF0.6744956188702984
aF0.6965682731772365
aF0.6997872509195626
aF0.7857011128653317
aF0.743901637673984
aF0.45800787000671406
aF0.20365296990901838
aF0.6787065601177891
aF0.06748498716183704
aF0.43046449799598285
aF0.6336701893648069
aF0.24890571552474272
aF-2.4779535589658508e-05
aF0.5239648932856236
aF0.7392101018910204
aF0.7875085259858579
aF0.1323504698725224
aF-3.2157443824676335e-05
aF0.4618955009408081
aF0.2481819074768663
aF0.25872240849452854
aF-3.108739835600005e-05
aF0.5151983486026301
aF0.2634729648978227
aF0.018182046192823265
aF0.7869136875271154
aF0.3621009124097472
aF0.9825849652866281
aF0.8877555370459063
aF0.6606635157604019
aF0.4396869887780923
aF0.5939008636920557
aF0.01563284513590757
aF0.4983438909597595
aF0.24102783638353653
aF0.8861436458161358
aF0.7182488465811687
aF0.40851516804373667
aF0.7034601194692156
aF0.3111019181589665
aF0.7098620705926524
aF0.7960856556384552
aF-2.455665485445735e-05
aF0.7417930709894422
aF0.10254566394905007
aF0.48912649710136025
aF0.07904727010384693
aF0.6121668010331511
aF0.4443321487591758
aF0.7826061042899979
aF0.3315189612841394
aF0.37859857395306795
aF0.412955766739584
aF0.6957718210916237
aF0.0742472286402256
aF0.7876072285864559
aF0.5901383348320524
aF0.7117645666190433
aF0.7651566507261616
aF0.6072409280304734
aF0.37447703673111876
aF-3.3714364633397054e-05
aF-1.7122517871115406e-05
aF0.7876065729294295
aF0.4415257304824922
aF0.6993591618325095
aF0.3026324148949735
aF0.0047977448851375115
aF0.14029039093060636
aF0.7841567215560561
aF0.8130685171754393
aF0.06632253055789938
aF0.06860265641150187
aF0.7676554895095182
aF0.4311667320708321
aF0.3298536635078224
aF0.6852653331008165
aF0.07922198196256369
aF0.6185601766846114
aF0.7667669384360161
aF0.14093299711353646
aF0.19040035953183354
aF0.326346954153379
aF0.5183176599606956
aF0.727559974200159
aF-2.8689932232150994e-05
aF0.06283783818933397
aF0.2509828988801237
aF0.0014314327530997595
aF0.7297978054850898
aF0.828318328580405
aF0.07922731489828028
aF0.7263202912431543
aF0.7415223437861034
aF0.19506597343299514
aF0.7187957043177509
aF0.6979389224602475
aF0.039486869633838406
aF0.8750894887771041
aF0.4210755902611125
aF0.5989926964180174
aF-2.294929441681859e-05
aF0.07093661261733386
aF0.6271309006137962
aF0.30703754892956026
aF0.6956370699488388
aF0.7977817257311024
aF0.7601651677424268
aF0.6975824462100211
aF0.01736340799586067
aF0.4967941758452694
aF0.6988473467529235
aF0.08361039227293388
aF0.5507231098165315
aF0.42890497191251464
aF0.5407415442028842
aF0.45221333004237696
aF0.7237312405950203
aF0.43102218242702595
aF0.5310121596861492
aF0.690411917550037
aF0.7352672584541522
aF0.7776457249384672
aF0.8602010932565745
aF0.6765632131559745
aF0.6966657750892686
aF0.08425217900690507
aF0.7119092973396368
aF0.13648096854435154
aF0.7525891982566733
aF0.1872979873179741
aF0.3761466977407326
aF0.07818817009187695
aF0.4754490464997638
aF0.43255091772169996
aF0.8267612842849945
aF0.7072827762311005
aF0.539394803286962
aF0.4110306296210382
aF0.6971433111895768
aF0.7598696146307802
aF0.25435733106741587
aF0.6999892734504654
aF0.06514971513830758
aF0.7686486234814236
aF0.700323105517481
aF0.07757364907274278
aF0.713981941945204
aF0.7530339763408516
aF0.3157860851157781
aF0.5364006401264136
aF0.6944390761696893
aF0.3687216149690151
aF0.38991961511061524
aF0.8253517199657976
aF0.8451243802958297
aF0.7680345294174371
aF0.1389328169264359
aF0.48169670447094814
aF0.6898473829789236
aF0.6308305008111055
aF0.6921003717967293
aF0.6381722503418175
aF0.6974439005547284
aF0.9009245096267846
aF0.48131150364891884
aF0.42668758454743694
aF0.6781996064654088
aF0.25031987845415893
aF0.6973363268388653
aF0.96388246578082
aF0.7385467512807882
aF0.18819855738841973
aF0.7063923606560838
aF0.29406621837688274
aF0.71080342969868
aF0.746158407451138
aF0.5402340009833759
aF0.7317845249647625
aF0.3485455341512145
aF0.08022785767229035
aF0.22175695660505967
aF0.7501716922598223
aF0.1861040402877916
aF0.7012408893745827
aF0.7017707850374366
aF0.31250247589531677
aF0.6350325476617651
aF0.32387627064633673
aF0.8979748600801765
aF0.12866808438755895
aF0.13789272633620175
aF0.2550629480179678
aF0.07909832309745601
aF0.1392585102942423
aF0.1401682597428362
aF0.07665698532289422
aF0.7018851034600564
aF0.37266893488544905
aF0.7212180683524072
aF0.26184346174301076
aF0.3248659026631726
aF0.695271356429485
aF0.2487324594454945
aF0.6991019634323625
aF0.7787440869913214
aF0.3513941866414747
aF0.5369239898510871
aF0.19009693420675866
aF0.3151843100854852
aF0.7794512152403912
aF-3.1464198352093575e-05
aF0.7712918160347009
aF0.6492124051100214
aF0.8060940957497058
aF0.3158993098977252
aF0.82485057203708
aF0.703880195716335
aF0.5820537856444132
aF0.9133099986078093
aF0.433430922931227
aF0.7192001168572806
aF0.6759549576794885
aF0.9076434192165737
aF0.42671647001402846
aF0.6700377205696291
aF-2.5031561174060357e-05
aF0.547270629917771
aF0.6485551770402314
aF0.782334843709044
aF0.6179686949628165
aF0.7070917356524626
aF0.8312326321256336
aF0.7020343478686066
aF0.8301958258939339
aF0.8586058974750674
aF0.48182819028554524
aF0.1895578247199743
aF0.26274525692556505
aF0.016783008565064428
aF0.4602911189721359
aF0.015651146689777296
aF0.5918779792926072
aF0.840904891699382
aF0.7571352594587628
aF0.8898345008270461
aF0.5053782125723796
aF1.1100958464027673
aF0.2883706088941942
aF0.0778239213127887
aF0.4152667557620635
aF0.5614433740489049
aF0.07687674788144117
aF0.8486616324104985
aF0.07925037601443297
aF0.7056283922146571
aF0.6481359119640864
aF0.7070234320721451
aF0.2653856867935196
aF0.3851475900078216
aF0.1447751577431755
aF0.07893932775370738
aF0.20602692269429745
aF0.8099219281905778
aF0.6982749183163097
aF0.7021745739514129
aF0.4579139196789508
aF0.01576951849206054
aF0.7958327053098966
aF0.7021935085975106
aF0.13791975149590785
aF0.703767846500559
aF0.7177815188634988
aF0.9365565912471321
aF0.11052360659969285
aF0.5022469347542615
aF0.22684723619329805
aF0.7790119291644508
aF0.392513135897266
aF0.7263106472968937
aF0.8022591260176783
aF0.6687484787383884
aF-3.076803856982835e-05
aF0.7849955669166677
aF0.172141497864974
aF0.7521159898732521
aF0.13768173251028681
aF0.7690167400356285
aF0.6928144415047433
aF0.7544238113759798
aF0.291122046197124
aF0.8079968619402358
aF0.8519171118212321
aF0.40586216501205596
aF0.5409633655542785
aF0.9236118336598658
aF0.31049784460285945
aF0.5802422398835279
aF0.574406053891122
aF0.8121364542706959
aF0.18554023278949883
aF0.5833455255666813
aF0.7661777276991115
aF0.804717276349848
aF0.38838868435890994
aF0.4905322210627441
aF0.7548839354936683
aF0.45847585438367533
aF0.7660051823175675
aF0.9868997386448615
aF0.26843373170926066
aF0.6389717538993809
aF0.7435485660334842
aF0.6092044359362183
aF0.710802897118628
aF0.25447607797519156
aF0.5799130850766292
aF0.8209724021028566
aF0.6858154276421788
aF0.7403307320050758
aF0.20454211786057064
aF0.5753936517020204
aF0.3277775038548505
aF0.6736773058765078
aF0.31128146349136365
aF0.635508801764507
aF0.7108375398569402
aF0.7065815919380314
aF0.7055365742294937
aF0.34855205631529396
aF0.7625315115809941
aF0.8045427296876362
aF0.12897466065332708
aF0.6622453705906421
aF0.7177142706455544
aF0.8858682487464855
aF0.9151361722512377
aF0.7573099894336321
aF0.777685026123101
aF0.6537972253342432
aF0.48922017913683424
aF0.7293532805701628
aF0.4335743958065743
aF0.798164398389889
aF0.15433116410986703
aF0.05412757548267377
aF0.05731885563246708
aF0.05492514295330775
aF0.05535905849622358
aF0.054871573038509425
aF0.05402913964309963
aF0.9165113159870439
aF0.6960537570826535
aF0.7890493020016325
aF-3.160209906871714e-05
aF0.7656156000071803
aF0.8713321739483435
aF0.6258167802198975
aF0.40356447060328504
aF0.14452151390605827
aF0.5252109772588107
aF0.7737444976187149
aF0.861903145610281
aF0.7004495429359823
aF0.5006883451754218
aF0.2560020473934612
aF-3.48787340449519e-05
aF0.45635336464373744
aF0.06341191123371326
aF0.2558159776725386
aF0.8565633300127349
aF0.7262493703010491
aF0.2866998103715215
aF0.20538195431587924
aF0.4063222675249749
aF0.7257028528726184
aF0.24798681494834351
aF0.0788740834319901
aF0.1931031353403796
aF0.7699192857795465
aF0.1898376207415211
aF0.43579986357777045
aF0.7741837076906162
aF0.07818328447029277
aF0.4024647126519292
aF0.7019886011854064
aF0.7244204886659045
aF0.7602836497193586
aF0.4268032327048741
aF0.168077112843108
aF0.6958142504349172
aF0.590771065678235
aF0.7476894663758884
aF0.6283052433534229
aF0.49525640825598183
aF0.7964870149869503
aF0.8034542493137065
aF0.5188064533510026
aF0.7210450661586458
aF0.62976506774522
aF0.25207758850042916
aF0.2327577432145591
aF0.8032630553056981
aF0.7730025577387871
aF0.7625075641488985
aF0.769249699040842
aF0.8014994810026517
aF0.714178684842619
aF0.696783328078554
aF0.7030557224822287
aF0.6837135241593013
aF0.19694104670816115
aF0.24998625380827333
aF0.4133477513684709
aF0.19041759786625168
aF0.1285188480524373
aF0.311841217618134
aF0.42181157084023635
aF0.699105097445198
aF0.6102215003749976
aF0.1932182893513681
aF0.07802065334552388
aF0.8067148991623894
aF0.48043432789989415
aF0.014528134025730388
aF0.8467736900113843
aF0.7604446343899536
aF0.6680195252932029
aF0.5682055553033396
aF0.7014606529491378
aF1.0030908686964146
aF0.43314511845508274
aF0.6560748149811793
aF0.734570353142618
aF0.16157764114245987
aF0.705017824758642
aF0.5392538009093317
aF0.8292438028578526
aF0.07367418233082335
aF-2.7532556811316056e-05
aF0.0734659843621972
aF0.4799445851452071
aF0.2502855651971738
aF0.7920515697570312
aF0.33716814207695345
aF0.854686475049018
aF0.7038071062424867
aF0.12880269040146253
aF0.17383612867939036
aF0.7990372682546316
aF0.13527444692479929
aF-3.27762634038109e-05
aF0.8632547886989941
aF0.6671839509027886
aF0.7714517963676579
aF0.3699505155913876
aF0.14120482373960286
aF0.37482416739491775
aF0.6483662146792235
aF0.5797471835629793
aF0.6849840198317367
aF0.3728511762109683
aF0.7923049438751124
aF0.897486232407207
aF0.1902385272091882
aF0.3572099655669718
aF0.008527221682327113
aF0.16831098322711968
aF0.1379710487367154
aF0.3127867200861574
aF0.7919197015367554
aF0.7465887544631773
aF0.6834086845362108
aF0.3868725909236188
aF0.9139212499761813
aF0.12538040123350624
aF0.9281527496995654
aF-1.989152491299606e-05
aF0.5294310350980127
aF0.2497695531573898
aF0.9158792387406764
aF0.6479402916999728
aF0.7366462461699523
aF0.44839117098198233
aF-2.8862688719488716e-05
aF0.6535728166718373
aF0.3171115154178734
aF0.6558284101187737
aF0.7363293740491899
aF0.3732124032401609
aF0.36657001887983
aF0.7949948372934919
aF0.4392772596252237
aF0.48005165803008465
aF0.7916247490924797
aF0.6397138042751904
aF-3.096428605076085e-05
aF0.727931231543061
aF0.2576646231067552
aF0.07094850157880606
aF0.8221142372629848
aF0.2529087978899107
aF0.3742818613836669
aF0.07898062201967893
aF0.6755404165217596
aF0.703203450253346
aF0.07951920218348807
aF0.7965356278467866
aF0.18936034925712697
aF0.12527562795712877
aF0.72316244171409
aF0.39502378787223913
aF0.7113817873580666
aF0.19999756503605015
aF0.7848685499672046
aF0.14161620161138977
aF0.5465480518954173
aF0.41217257960770315
aF0.5547427702478869
aF0.6634028495349562
aF0.7070340437693607
aF0.7581239172802121
aF0.9173680934792272
aF0.8340442406886366
aF0.24222505230971203
aF0.44572486099828934
aF0.5502905534497362
aF0.4828797556501687
aF0.816668167963106
aF0.7311427613731487
aF0.8032518604678245
aF0.7711057203243126
aF-1.9164003095983873e-05
aF0.11707800763215692
aF0.05828685285053137
aF0.6903168275107796
aF0.6061497442789459
aF0.15152036394787682
aF0.7647352050977863
aF0.37246892046189295
aF0.06621038662783318
aF0.6940033352143882
aF0.17481101292215406
aF0.411607836814885
aF0.39021745833528687
aF0.28092308181994774
aF0.3822572268147142
aF0.47229697179351815
aF0.7206450844493033
aF0.4299851412496576
aF0.4525929272771769
aF0.614050735456531
aF0.7156222943637216
aF0.7739535132632533
aF0.6076787885910147
aF0.07082729705867763
aF0.1288092232018916
aF0.1136465323240552
aF0.17464578398838393
aF0.7239515831195953
aF0.8300457511947865
aF0.2175563061582566
aF0.6084543469051606
aF0.7948967008623646
aF0.7872305785080815
aF0.661646219766018
aF0.6053050924241306
aF0.8767291793301366
aF0.5970718054648874
aF0.35647635854889925
aF0.15234344143196799
aF0.4148731153958378
aF0.7379690629288005
aF0.3740372615188017
aF0.016191310622522437
aF0.13837536504811565
aF0.07964417495457843
aF0.19051473594404422
aF0.2540501381734952
aF0.6899381608819044
aF0.582748804282263
aF0.7746080275796126
aF0.5485856319647127
aF0.3912944857017959
aF0.4957268459729187
aF0.3211116484644414
aF0.12592719520344708
aF0.21787615485240108
aF0.7193299895733514
aF0.3715093108036278
aF0.13204189212508277
aF0.6998010822387668
aF0.18598063143767174
aF0.29679557568190384
aF0.6970742384525792
aF0.7211173423494941
aF0.9140440526292077
aF0.7153957677493312
aF0.12906466637747016
aF0.836634784999172
aF0.7355625133323156
aF0.3731828003587143
aF-3.0384995797216874e-05
aF0.14019337823081512
aF0.8032971111194653
aF0.13770414135265296
aF0.43172251831698283
aF0.8866480280417686
aF0.6545015591485615
aF0.594145053713123
aF0.7381662636056499
aF0.697122829802745
aF0.6487174945241425
aF0.7199977692735975
aF0.21798573983378766
aF0.7980460066109676
aF-2.6655406293318862e-05
aF0.0636909384530453
aF0.7963064592838558
aF0.2914723370274759
aF0.7939771526461654
aF0.7913370681016612
aF0.07881744662276002
aF0.758702031238085
aF0.2808702891913213
aF0.7392037944522283
aF0.8127357607977137
aF0.7092445965572489
aF0.7923578113612191
aF0.29816166184846216
aF0.7276236191910268
aF0.7753894799185286
aF0.752003924120884
aF0.49520335329239584
aF0.6593475038310164
aF0.454184628542023
aF0.6837549907978628
aF0.5499717492941176
aF0.8610108022315122
aF1.0013039477735388
aF0.7853195101833665
aF0.7007575303666767
aF0.8011621772996631
aF0.6924523680122765
aF0.700877446766591
aF0.7448789925459436
aF0.740359930606791
aF0.7990393902000354
aF0.7222122781224041
aF0.6956138180398033
aF0.40739853346978716
aF-2.7723637890719743e-05
aF0.14171894957356068
aF0.9104099086113902
aF0.7917737407923124
aF0.5890469498452604
aF0.8141915098317902
aF0.06693643563886242
aF0.3194871299342581
aF0.018655278858801694
aF0.2883395877849364
aF0.49087887065295943
aF0.8384315069259922
aF0.06592640568613994
aF0.4035822104985427
aF0.47807629443107436
aF0.8653732780460346
aF0.06686318860491314
aF0.6981302395316931
aF0.903470190761869
aF0.7322972749913634
aF0.6621398127634519
aF0.659146201028983
aF0.6667579835891311
aF0.702283927826723
aF0.6971445097733584
aF0.1242275371412851
aF0.22569212955334095
aF0.612865595689934
aF0.22422011237242856
aF0.7073852061159229
aF0.18296049304858464
aF0.7061506506897559
aF0.18649681740119917
aF0.2871191151883732
aF0.8050835492883714
aF0.2660096159567926
aF0.9526404535849404
aF0.6935984743733101
aF0.7805969768991963
aF1.1330537919130057
aF0.14385409601835608
aF0.1984084695783217
aF0.3260053506406968
aF0.28748554578748386
aF0.5546951531979198
aF0.65348427923412
aF0.7921831357304385
aF0.5684881294456026
aF0.33976508271049477
aF0.7935426800304688
aF-2.6321387188055212e-05
aF0.35859137220768256
aF0.0995508891869612
aF0.48580747176751693
aF0.5316040009330609
aF0.11109486440465455
aF0.3872001256672948
aF0.7083776908059769
aF0.07370909807633108
aF0.018050461828676312
aF0.6221301149816361
aF0.2823219585310439
aF0.666130975289565
aF0.7761932126320672
aF0.7868622809689101
aF0.7509364099848956
aF0.4297899142491466
aF0.6527545590284709
aF0.7055397154748468
aF0.7903216771760189
aF0.8833309428982328
aF0.7333298484913082
aF0.5523714301840306
aF0.6651725643676167
aF0.5899906184078909
aF0.5310626348932863
aF-2.738184380035591e-05
aF0.44927739236657693
aF0.12894308928070686
aF0.74187767905077
aF-3.232776764550138e-05
aF0.701857824248727
aF0.8407968496726306
aF0.6473460653554404
aF0.803163842598682
aF0.7606539077892824
aF0.6116882261158825
aF0.6386308169738575
aF0.43194202873739007
aF0.6911639339475362
aF0.492078312160078
aF0.4321651352033089
aF0.7532301771416336
aF0.739813755947734
aF0.42363552665221116
aF0.580747704024474
aF0.3236288597812731
aF0.5744580696717554
aF0.5837165270281259
aF0.7303525984027188
aF0.6072527898789501
aF0.21255852229165395
aF0.6105575284300708
aF0.34749892478065014
aF0.8115975283384662
aF0.6652134499173581
aF0.5773195310813346
aF0.7992524575213125
aF0.07696908212880427
aF0.13913866536532504
aF0.48552456868921423
aF0.707226948703954
aF0.6641082979774469
aF0.7681482988044546
aF0.4705976648429475
aF0.5421316754657433
aF0.7899745343801259
aF0.7161566923751628
aF0.5731638383124786
aF0.36343308660624407
aF0.6856081827478864
aF0.17514683169679213
aF-3.0231343885578355e-05
aF0.22813758254973138
aF0.06481823436682976
aF0.18632238732060102
aF0.9592597610283287
aF0.8042951777551939
aF0.7527165815773831
aF0.5885316235265416
aF0.2379993711468864
aF0.5506783742909671
aF-3.362063057954501e-05
aF0.7186638330682396
aF-3.427659835786301e-05
aF0.7953797934591753
aF0.8858141278312051
aF0.8825447992030138
aF0.34997198028807386
aF0.7965445938789668
aF0.48932082029347646
aF0.41029987131701917
aF0.49518743737342197
aF0.1444290755847022
aF0.3855555858879458
aF0.5610373363769687
aF0.5289699828626953
aF0.8059198873818438
aF0.7587447099423059
aF0.6695723184761775
aF0.5278361847292925
aF0.8923831646474669
aF0.24808110111630954
aF0.22844844601441583
aF0.40507162478375136
aF0.7464559311020955
aF0.0018204241181920544
aF0.13843356355906256
aF0.8240050550845082
aF0.26375715664013955
aF0.4771833188522763
aF0.7111870447455737
aF0.07443870371060601
aF0.7279107310375958
aF0.7735814249035609
aF0.7026950533191738
aF0.7376027922045467
aF0.8116221265133579
aF0.5625427981398432
aF0.5233954636941629
aF0.37652665711693967
aF0.0698348012358232
aF0.5547482274429787
aF0.8675038253348109
aF0.8960807422230084
aF0.4350956790836089
aF0.5784438782577803
aF0.37889805919687847
aF0.6411070604684137
aF0.31154127279988053
aF0.13489936782497924
aF0.7009813455797786
aF0.6134925117036891
aF0.29667078478702713
aF0.1328781327861921
aF0.8070481121750848
aF0.725331497710711
aF0.7830377468264218
aF0.43867177548523006
aF0.6408336269227322
aF0.1393083699051476
aF0.18985305231733074
aF0.5750013869490975
aF0.4305549831395332
aF0.8574241092347417
aF0.701961498074823
aF0.7030184984907892
aF0.2977019793027593
aF0.49232981360000316
aF0.6876720590396452
aF0.01747935416289703
aF0.8123948894809652
aF0.5546876446482418
aF0.621740731753742
aF0.0741138361795195
aF0.5224030356162541
aF-3.224886195019039e-05
aF0.7047302622108758
aF0.83732005819251
aF0.31626521392194507
aF0.07756239300654322
aF0.39328370025315085
aF0.7314601925657875
aF0.3897012839106755
aF0.8330715582824975
aF0.1430532576180692
aF0.4803398959004568
aF0.7000263750049314
aF0.8030622230361373
aF0.6569916175683743
aF0.6614900469938809
aF0.7671207689092423
aF-2.1800290418205748e-05
aF0.3120244703826338
aF0.6054806273509472
aF0.7325068408597213
aF0.6461214628193774
aF0.8085487639623823
aF0.30715149258215746
aF0.7224061794701573
aF0.756525919215361
aF0.7367661724918944
aF0.7933727648875024
aF0.31714729824236043
aF0.7938995911642519
aF0.4749075967675278
aF0.7239985045501154
aF0.03946129513139507
aF0.04237919776280252
aF0.04239234018329663
aF0.16408109040877106
aF0.15070344292507531
aF0.25344631240215953
aF0.7402160126699666
aF0.2282625466318824
aF0.7071909817587931
aF0.4246754523834477
aF0.81799085062889
aF0.2747076181667212
aF0.36348988089101075
aF0.6990660312745733
aF0.14343388765272236
aF0.3085580960726486
aF0.22670496785801797
aF0.6869656052112925
aF0.5871263694955653
aF0.3327327804459599
aF0.787731813315018
aF0.9721796798501057
aF0.37368802783314203
aF0.7720248588776002
aF0.3190694966886398
aF0.6773524050178277
aF0.3414174564075809
aF0.911023749882939
aF0.32816211481677904
aF0.12925086879704528
aF0.308754661666633
aF0.699386987681315
aF0.5326834513202372
aF0.2130368270736276
aF-2.7676634229312214e-05
aF0.2580449493778061
aF0.4422055097465676
aF0.7163768722566033
aF0.8397935570676149
aF0.6828480895480604
aF0.31237178263270815
aF0.33110679476529326
aF0.7007572068022312
aF0.7797986156178376
aF0.7301821294829582
aF0.9101457976897209
aF0.41969119762994156
aF0.8021402122088901
aF0.5931635792300956
aF0.4879122270728953
aF0.7942326948977341
aF0.7145338852201837
aF0.01807544613467904
aF0.24951966948375448
aF0.435021092437641
aF0.4131583975520958
aF0.06168073789509432
aF0.5838888738064418
aF0.44341314658746755
aF0.4820790123837284
aF0.5343355701035541
aF0.07776566155388354
aF0.6585795100037752
aF0.5747506359347772
aF0.5747951446075836
aF0.6970661087495462
aF-3.473727014124961e-05
aF0.6311961091081577
aF0.361907425238329
aF0.06671475819032802
aF0.7200311794777252
aF0.22841137708474646
aF0.3191301153073236
aF0.37244977658331013
aF0.06646597518454822
aF0.8012327009654472
aF0.7583864071468751
aF0.7625367245565213
aF0.4878135160778698
aF0.8302183812120023
aF0.33862508846184625
aF0.1397635074162653
aF0.7556409401303621
aF0.6085861097905108
aF0.8062235775773834
aF0.31190383422935497
aF0.12390755556141153
aF0.5889846060689639
aF0.07357785627518298
aF0.8332550795162659
aF0.6999249798782969
aF0.7252488770925876
aF0.5004358712565589
aF0.25102675539456465
aF0.6583565676943093
aF0.36581268852831084
aF0.20260379335681744
aF0.5556858466735397
aF0.7345188314829358
aF0.3796050861454021
aF0.07900442317023293
aF0.07647468360183307
aF0.30823151982496677
aF0.7246801837989705
aF0.6651439613399326
aF0.6793907120738547
aF0.30739732115790375
aF0.7844082416325069
aF0.5556160819781737
aF0.07463603282204678
aF0.519357091432783
aF0.796342838663052
aF0.37081186377908626
aF0.06471006901651455
aF0.18972164797479785
aF0.43820114409689426
aF0.44318703015499006
aF0.9504569527620736
aF0.7972051336088968
aF0.5388696297066251
aF0.4349617643491661
aF0.7141781495220081
aF0.5524120707288502
aF0.6341533267122808
aF0.5295138953579119
aF0.9019542397932474
aF0.7235557588902584
aF0.35870788717105606
aF0.7507705200339196
aF0.24527846189274394
aF0.8136547907037364
aF0.7897203811914193
aF0.0646482498024219
aF0.24706650870102376
aF0.7842586883286917
aF0.7193151289405244
aF0.43393355920230725
aF0.408150941029898
aF0.6881308261845591
aF0.7462259206136075
aF0.37844900157082684
aF0.4745062130393549
aF0.6628233386278253
aF0.6981580067248916
aF0.6964584953273705
aF0.010160543597478977
aF0.5257301421377627
aF0.20256687288139075
aF0.4287331842547242
aF0.08116037069334991
aF0.5850626670549404
aF0.07964710472745518
aF0.8722326133403162
aF0.7410981177302594
aF0.26537253995849275
aF0.14381126478161477
aF-2.6877077611064948e-05
aF0.6969301523437625
aF0.06517098899003892
aF0.7217344715801266
aF0.4954797686515713
aF0.3828743548280018
aF0.38609513030321985
aF0.7346526883743456
aF0.6649362491516793
aF-2.5854537833325253e-05
aF0.7160620955998369
aF0.431427264744757
aF0.48867581557230944
aF0.25960565339673725
aF0.08254305105455817
aF0.7186128280537023
aF0.7629516675090526
aF0.7819581458634697
aF0.7365741464686861
aF0.3518823752320359
aF0.08279416080007129
aF0.2043703523571434
aF0.12952588461564307
aF0.3556221034544582
aF-3.351654064731591e-05
aF0.7292471683692279
aF0.07409603278628651
aF0.7030236008879807
aF-3.136877558951312e-05
aF0.6966946857677749
aF0.5782449605473996
aF0.7725483241984947
aF0.76234085049136
aF0.5990545319081853
aF0.20185031104838114
aF0.7136248858393541
aF0.7333596995163667
aF0.3124432967106512
aF0.6760179704393132
aF0.3580381609407386
aF0.6134803597190661
aF0.6208819566792125
aF0.316154865834136
aF0.14577139579229526
aF0.20316636922529208
aF0.37364822455186264
aF0.7938346591309382
aF0.1749712475278864
aF0.7582728662988907
aF0.7061216902716398
aF0.5788409082608763
aF0.46490512788098304
aF0.016855521139473417
aF0.7531047511702207
aF0.21795895568161994
aF0.13812965116874265
aF-2.4859346372529956e-05
aF0.6974475970009903
aF0.738295000147744
aF0.3860384491039621
aF0.18974907211174852
aF0.7401962714613197
aF0.7143964037378443
aF0.7541531548651199
aF0.4584743826378235
aF0.48433902462543843
aF0.23016249502192743
aF0.19994824882170992
aF0.09669709439303231
aF0.22894752958229603
aF0.7110279635750665
aF0.7143764654278151
aF0.01689348474519914
aF0.8682048285492177
aF0.17175658254242743
aF0.07938001488187041
aF0.6306735525423872
aF0.19684492158017886
aF0.8310273574636673
aF0.8589309544273238
aF0.6343468703712944
aF0.568485270652435
aF0.13572869738328164
aF-2.9503487126270045e-05
aF0.8120874961175515
aF0.2615216740710209
aF0.7435857317871792
aF0.692574466323546
aF0.1401060692526941
aF0.5622544803970149
aF0.7190346143309192
aF0.8779285820360587
aF0.4194486401935431
aF0.7900475455277896
aF0.8297056995891428
aF0.0741611573096086
aF0.7300186021239154
aF0.7653506104064824
aF-3.171218379582896e-05
aF0.6588300647866228
aF0.8203837541390606
aF0.6475226876516085
aF0.6606901099608327
aF0.06524154678854277
aF0.660806243641864
aF0.7025491462302185
aF0.31719218595535104
aF0.6207169152087384
aF0.6962013819733301
aF0.871044476442616
aF-2.7245441108547652e-05
a.