(lp0
F-2.6824894486576767e-05
aF0.1658929979913366
aF0.010153659049088937
aF-5.071641221654488e-06
aF-1.3905153553928074e-05
aF0.0240342401896787
aF-3.25076219627185e-05
aF0.20149570566389485
aF0.3424059475771717
aF-8.172596084765615e-06
aF0.09732214634315373
aF-2.0678560015419123e-05
aF0.009408084369286751
aF0.1871313029648447
aF0.016431918885654095
aF0.1280998952279071
aF0.04367528896476269
aF-2.9822804973989037e-05
aF-4.27654273460476e-06
aF0.0411344189074474
aF0.016120201376903065
aF0.03665693326254171
aF0.017956215053185787
aF0.14500266014939323
aF-9.163005513901368e-06
aF0.18359807605874234
aF0.15808539492042106
aF0.07504179587367155
aF-2.3396656277263617e-05
aF0.02751130644911237
aF-3.319530414058747e-05
aF-2.5048233533109254e-05
aF0.16607710715794877
aF0.02465645022429097
aF4.702673955137016e-06
aF0.12330263785086881
aF0.12265688103103356
aF0.01565973203770321
aF0.023028012315399415
aF-3.356985766433951e-05
aF0.009620042260365391
aF-2.184581859365764e-05
aF0.017217285510351843
aF0.017396212017979806
aF0.03905073061673736
aF0.12422601780066822
aF5.05938316575083e-06
aF-1.8745765929750746e-05
aF0.0719063728781344
aF0.026269118023557247
aF0.03215022895533881
aF0.09143351192556093
aF0.11961313816166497
aF-3.1333843633074565e-05
aF1.3653638353261499e-05
aF0.17336685153687315
aF-5.956341459167902e-06
aF0.003331732807606347
aF0.014628549368737698
aF-3.1439328269655675e-05
aF-2.129539926443158e-05
aF0.04339023038664713
aF0.17614390872984087
aF-5.0756313494382255e-06
aF-7.755399926701045e-06
aF-1.7443585250020988e-05
aF0.01482101433907168
aF-2.939826505121701e-05
aF0.03503556417399745
aF0.061823770477587026
aF-2.7706422262241404e-05
aF-2.561753800289779e-05
aF-1.080809385989312e-06
aF0.015299019956106719
aF0.07997938324975262
aF0.016679563062627523
aF-1.5689985491285086e-05
aF0.016027221225597188
aF0.10251816604826836
aF0.03515829399872361
aF0.010240986118140505
aF0.001028948866411028
aF0.015149045516029247
aF-1.637323171754801e-05
aF-2.4455512233512167e-05
aF-2.493788068269609e-05
aF0.16903246565334307
aF0.12311508040292596
aF0.04216994331455348
aF0.027633869482697193
aF0.01808301063441009
aF0.020724799918046877
aF-1.1965302741501205e-05
aF-2.1121605123131104e-05
aF0.09426632564951154
aF-2.3693880942143863e-05
aF-1.0522675684576654e-05
aF2.6929797085628593e-06
aF0.05288513112718718
aF0.016778324120713783
aF0.09968713885616554
aF-2.5543662898641628e-05
aF0.016694931208284913
aF0.04572928577045765
aF0.047245403110733
aF0.01872035826352958
aF-2.1373898851706485e-05
aF0.0807045322890958
aF2.0008952898997734e-06
aF0.12216227916966194
aF0.07501871693134765
aF0.016819113032974897
aF0.007314667319264334
aF0.12192416198035039
aF-2.4448630478790534e-05
aF-3.2699539163072444e-05
aF-2.6306977420897937e-05
aF0.014108324981567666
aF0.22995403899051015
aF2.2889730239672446e-05
aF-2.5150541224316925e-05
aF-2.1022504170353784e-05
aF0.012133261568137321
aF0.1722716880520463
aF-1.0148321825109718e-05
aF0.0025767468416644235
aF0.016850834242922108
aF-1.762373957880925e-05
aF-2.7674594603066538e-05
aF-2.9269177427959647e-05
aF0.016520148959372705
aF0.20635286219583016
aF0.016233427047913196
aF-2.9045280003803242e-05
aF-2.5255000084101198e-05
aF0.01652844964774003
aF0.12294678665462078
aF-1.221389979555454e-05
aF0.01177496810921852
aF0.01026815521678559
aF0.017747858363504232
aF-1.6178296605051656e-05
aF0.017188303867199384
aF0.14742301722707074
aF0.15570030885932074
aF0.01645473070872283
aF-2.466302175196944e-05
aF0.05487392474009489
aF7.336495327692205e-06
aF-2.9467012373274315e-05
aF0.10312095357642503
aF0.014906432263152691
aF0.05883210026349239
aF0.18097913113693664
aF0.12063678430947711
aF0.016178436577976463
aF0.19703629551345392
aF5.342101373262409e-06
aF0.11754114960107653
aF0.01687078538209308
aF-2.0739226843868863e-05
aF0.017563738838407783
aF0.08441987419886177
aF0.01696598434552099
aF0.016055043053111895
aF0.013597038633076153
aF0.01832982955285578
aF0.12074323960361344
aF-9.355835572932847e-08
aF0.01653535171968956
aF-1.7410433991837948e-05
aF-2.6420729390519426e-05
aF-3.124095162121421e-05
aF0.035842378254445695
aF-2.6700138194168943e-05
aF0.04321785980184334
aF-1.2273000266738165e-05
aF0.016673196547038582
aF0.009687484021893233
aF0.15503050738802537
aF0.01633772390278354
aF0.07895372598163908
aF0.016885533891878524
aF0.03208228753704878
aF0.015342386230612792
aF0.03997115564460518
aF-3.0288333320527272e-05
aF0.17310886669683256
aF0.07682784745707494
aF-2.9772756585888516e-05
aF3.880962735181015e-05
aF0.09787709084736829
aF0.08071796247147756
aF-9.847915614091818e-06
aF0.007692930975761847
aF0.10394489787508876
aF-2.9418818336068853e-05
aF0.016709138749885888
aF0.015480777803446255
aF-5.9303844039959586e-06
aF0.002579592173910239
aF0.04095922600977486
aF-2.9261080381814963e-05
aF0.09840434221933814
aF0.05402262009442227
aF0.01586625964107302
aF-2.71631933141947e-05
aF-1.4158493494065283e-05
aF0.025975802905855883
aF0.015723846710964384
aF0.08299574413197552
aF0.006893850515973909
aF-2.028424738398371e-05
aF0.024716172329305675
aF0.09909768433260968
aF0.016397173734533865
aF0.17152390529655603
aF0.09911442965191508
aF0.016560514558120687
aF0.016894650982291815
aF0.016738897399957153
aF6.745251521333984e-06
aF0.01700898959705377
aF0.016466890535069556
aF0.017575915319868685
aF0.016755856792918244
aF0.01687074094374541
aF0.016443411940002317
aF0.024813681551786093
aF0.015237735581740353
aF-1.3917734601243126e-05
aF0.016698333271786492
aF0.015709851825099985
aF0.01722797610715654
aF0.01714306083756645
aF0.01707754889293156
aF0.094513636261083
aF0.01699622996795158
aF0.01668142076318979
aF0.026822599721478824
aF0.0869358201304955
aF0.057747521487286235
aF-4.748673303911488e-06
aF0.0165123115463075
aF0.0735320599363658
aF0.07934042635556349
aF0.07589676065719075
aF0.08833932422110724
aF0.14951944061874656
aF0.018252090360010076
aF-3.077149622043862e-05
aF0.016923546791896893
aF0.01690219445624397
aF0.017033270814233337
aF2.8374726915636472e-05
aF0.017991406366388407
aF0.030728784092312278
aF0.016800869456879308
aF0.059065933682920235
aF-2.3313482311326794e-05
aF0.10857607777979972
aF0.1058890791200211
aF0.016846911961053035
aF0.11310730428304483
aF0.0857381964309778
aF0.016717466481910304
aF-2.6715827021739358e-05
aF0.05475413653764738
aF0.07342635961974153
aF0.016805005127908945
aF0.01679959251098584
aF0.025794195573004775
aF-1.1153895253190882e-05
aF0.014394256566632624
aF0.01689260118041913
aF-2.710642980696676e-05
aF0.15845941669118213
aF-1.5402429557997976e-05
aF-2.3254002419648145e-05
aF-2.264610899205266e-05
aF0.016784913135852175
aF0.017035764591511793
aF0.058541070953727736
aF-2.1218981803627912e-05
aF-1.5331959230646675e-05
aF0.016590275096261653
aF0.09605753315680898
aF0.015979336980692427
aF0.054979979405014756
aF0.01672761784395016
aF-5.972703893686315e-06
aF-3.1797089550700264e-05
aF0.05437632074899357
aF0.06128132897046257
aF0.03394194897392522
aF0.024579067928907072
aF0.019970850767411008
aF-2.2979916652676735e-05
aF-1.4672165735696296e-05
aF0.09915935963156741
aF-3.38638781798295e-05
aF0.041949386528759014
aF0.016853067364891672
aF0.0431901329179043
aF0.01692436733797198
aF0.2976596652129264
aF0.016202666112625774
aF0.05227403621607829
aF0.026463709709408256
aF0.02607213658722607
aF0.07980805709258165
aF-1.2100643997481342e-05
aF0.01656183540408218
aF0.05751292622329407
aF0.07809049762938214
aF0.03814513448543755
aF0.016782559311467438
aF0.01682958485055197
aF-2.9839993298086398e-05
aF0.016842070735416215
aF0.08604418159502103
aF0.013150506561280029
aF-2.4921324043081228e-05
aF-1.3441807606540124e-05
aF0.016801385248358613
aF0.026229199490934274
aF-2.7171203667020194e-05
aF-2.8718101726887824e-05
aF-3.0114745252607378e-05
aF0.016623044735495363
aF0.010310354565535196
aF-2.929246403526875e-05
aF0.08117951854273908
aF0.02407624682955456
aF0.04298105341669878
aF0.02616830487142474
aF-2.993084461522244e-05
aF-2.924730865938585e-05
aF0.04316759617552002
aF0.016920577166422035
aF0.016791588635949317
aF-1.693207000919017e-05
aF0.02906116440054962
aF0.01698572613196303
aF0.016927497897463173
aF0.008004959819296165
aF0.016721527410298087
aF0.016817741302455058
aF0.0037612045040922304
aF0.016497599405775
aF0.016759482364893774
aF0.01668455354202969
aF0.21632442845511868
aF0.09613307276512106
aF0.016663016132217212
aF0.016960916162646278
aF0.06114223275734609
aF0.1524950413792161
aF0.04225289124014742
aF0.016640046574477374
aF-2.2448712389433467e-05
aF-2.035766049912624e-05
aF0.01709018879830504
aF0.019253954433507747
aF2.05389689047486e-05
aF0.016769956755148474
aF0.016935518974402264
aF0.016788162561887088
aF0.01687020720681387
aF0.016831489679262734
aF0.01666347015998726
aF0.01641541509828981
aF-1.5541063178137193e-05
aF0.01667855596028378
aF0.016872708204428655
aF0.016722830120666554
aF0.19668919623677716
aF6.018417792130748e-06
aF0.016700736494538404
aF-1.6894769971909085e-05
aF0.08238945579996271
aF0.016680755951853588
aF0.016917622887633765
aF0.016630800531502565
aF0.01545746511028323
aF0.05939987933602975
aF0.11867518217880235
aF0.016578749638133772
aF0.07997897916121799
aF-2.3573248310260198e-05
aF0.08695372351418751
aF0.01596481763167157
aF0.10364356667643682
aF0.04096545246957284
aF0.016637260220956573
aF0.016785697304690927
aF0.08507075680056708
aF0.01930302920939564
aF0.21399983919613685
aF-1.6682483042540497e-05
aF0.01696937518135977
aF0.016917751984871998
aF0.016749391696473825
aF-3.161331800560774e-05
aF0.01689975559679624
aF0.016953880181260317
aF0.016813381485293988
aF0.057975120243738854
aF0.01675563594854168
aF0.0446937653577999
aF0.016341251662209455
aF-3.2250521091459206e-05
aF0.017006563088945992
aF0.043587711133256324
aF0.041061398573932095
aF0.017894847580808726
aF0.016735119174092095
aF0.01848595264311559
aF0.026465262773853748
aF0.026568161055898543
aF-2.1331239198563168e-05
aF-9.73785112101666e-06
aF0.01657828005108497
aF0.01686341296000382
aF-2.8383140881160784e-05
aF0.040829939690036454
aF0.017712152881387944
aF0.017063035905394486
aF0.016956838168197486
aF0.016984125432243147
aF0.016799193620156583
aF0.01686327546559152
aF0.016694758018541034
aF0.03494007676776212
aF-2.6954397117862072e-05
aF0.01681553405437075
aF0.014781997737788544
aF0.027833156375086432
aF0.003364960558299046
aF0.016554673321144353
aF0.016784785250846923
aF0.01689230722345414
aF0.01682639801864072
aF0.016898200406435304
aF0.04613764767704698
aF0.01682711919929014
aF-1.8367501917193607e-05
aF0.019413506197605734
aF0.024703023384839096
aF-3.2795506142768716e-05
aF0.019377709072569527
aF0.025709449839327547
aF0.13256031020244352
aF0.01661896985826239
aF0.051878847769646796
aF0.05932636776341971
aF0.0167695113011308
aF0.017102380484574464
aF0.08521522061508868
aF1.0828198641288367e-05
aF0.017639673785481147
aF0.01793427879834386
aF-2.3737012649682754e-05
aF0.09561707679108311
aF0.016999016271900924
aF0.07586770489456196
aF0.0034284540778890538
aF0.026474968279626587
aF0.1218934270829708
aF0.016272757402433946
aF0.019325514368107477
aF0.11662203909912083
aF-2.8549482277373528e-05
aF0.01781234760431971
aF-7.149673998618766e-06
aF0.1069087960231987
aF0.01678548187233453
aF0.01707751255695511
aF0.04627208371431468
aF0.05853261707131763
aF0.016625407076619858
aF0.016890084110463555
aF-1.1399763458541656e-05
aF0.016703238655765507
aF0.1452330709283367
aF0.016805711242538823
aF0.01717133430504525
aF-1.684745232299889e-05
aF0.01678220426018262
aF0.02880212978624952
aF0.016795808228740494
aF0.01708233327547548
aF0.05788247260419821
aF0.01680825485901849
aF0.01703187294632169
aF0.016767021599529475
aF0.017325435747699736
aF-1.2120333688248053e-05
aF0.02612666104334016
aF0.016968071272859486
aF0.016853332059552084
aF0.01688541971123314
aF0.046755453908940314
aF0.016940899363619533
aF-2.2632777259001813e-05
aF0.04569381542561857
aF0.01668607091817309
aF0.08438750144773444
aF0.08600150235618731
aF-2.7662879994672096e-05
aF-1.6924694877129554e-05
aF0.09578043695148519
aF0.01672752323457871
aF0.01676098469999099
aF-2.1038630788172696e-05
aF0.01662459513899872
aF0.016968174630572097
aF0.016795078380290818
aF0.017341181777013492
aF-2.7259803852430764e-05
aF0.016545040410246514
aF0.017535799030228727
aF0.025734107737654277
aF0.05551107074815809
aF0.01671405602144871
aF0.01608265079666138
aF-2.1019744334882517e-05
aF-1.6361590718272367e-05
aF-2.758822125947802e-05
aF0.016734947520575805
aF0.07865095550062184
aF-7.242088242875866e-06
aF0.016601571355500777
aF-2.357156905441471e-05
aF0.016931043602440354
aF0.017135867943665062
aF0.016984965792668838
aF-2.0251554184280707e-05
aF0.015512558075505556
aF0.017720953919710514
aF0.017044039487610352
aF0.172642774938347
aF0.026776274169451497
aF0.024802011105129473
aF-3.845288434334293e-07
aF0.017172191592201624
aF0.01687736224761105
aF0.016974073904991727
aF0.01696635448091577
aF0.048390075346810946
aF0.016741978867091944
aF0.01685985717710503
aF0.01694723095003292
aF0.01568291898307672
aF0.09509424612432449
aF0.016793452764314765
aF0.01681900818579196
aF0.1628196358423093
aF0.016525652744322716
aF0.1215284749760972
aF0.019441048364838842
aF0.017092232353668635
aF0.01524359052568336
aF0.017035811442835946
aF0.016729214547235305
aF0.016620772544813534
aF0.016773837306744976
aF0.020487078273693893
aF0.016731454012713254
aF0.016999422137649933
aF0.11871002907239836
aF0.07969446228915045
aF0.016755374673546708
aF0.01695305888773424
aF0.12710807544540037
aF0.007164094437025259
aF0.016571369406068737
aF0.017073042314986075
aF-2.8875737920319722e-05
aF0.01692976693294801
aF0.016659964830234575
aF0.014294344352085542
aF0.07347213706018252
aF0.016868415514208035
aF-9.652589841202541e-06
aF-2.7949304671537334e-05
aF0.11495499592090574
aF0.18526902169925208
aF-1.3439671828763267e-05
aF0.0168741606802727
aF0.01687919420479922
aF0.016750699089642218
aF0.031719198689692085
aF0.016340212649698316
aF0.14887917766620973
aF0.01636850491188868
aF0.01712297661879658
aF0.016804510922188154
aF0.01687854077179196
aF0.016901755398191387
aF0.008709959702029924
aF0.0167799478909072
aF0.0440636423586076
aF-3.191473022434721e-05
aF0.01664940537756987
aF0.016913458789031388
aF0.01682460896782123
aF0.01713924932441291
aF-1.2620994153778042e-05
aF0.016817367371113168
aF0.01686062179542258
aF0.01652807829354197
aF0.017019850604220288
aF0.01682939502177927
aF0.017052341517655112
aF9.91635396108137e-06
aF0.06376723426840591
aF0.01453253625180606
aF0.01709554204501007
aF0.01676789856246419
aF0.016793437325989924
aF0.016803013877800588
aF0.043421421846195685
aF0.016927230498991364
aF0.0169575072553112
aF0.016757557046925164
aF-2.478663124882985e-05
aF0.017618900427755158
aF0.16665674554243948
aF0.01635942411978597
aF-1.2972698484325917e-06
aF0.016844827683590857
aF0.07633990260940093
aF0.010337174526578341
aF0.01692195568402921
aF-2.5478515161658777e-05
aF0.017689618010761077
aF0.01677879743069166
aF-2.6100967378983597e-05
aF0.016592844171804177
aF0.045467310850678455
aF0.004545178806696359
aF0.016673254872910714
aF0.016936077779045267
aF0.01675024473826392
aF0.01683385698544937
aF0.0789025571675257
aF0.0168149278457963
aF-2.8862969501552982e-05
aF0.2105989684605687
aF0.01632606289634353
aF0.016764397859304836
aF0.016750781380971524
aF-2.1841392467525367e-05
aF0.016602393366715873
aF0.016878624185550084
aF0.0962849535698651
aF0.016191922147414495
aF-2.6639534268291243e-05
aF0.027868850866915373
aF0.16544771038084072
aF0.016264445913168224
aF0.016788736120419312
aF0.016807194650093837
aF-3.381794463530596e-05
aF0.01775504147213658
aF0.01720356024383074
aF-2.0296541272113444e-05
aF0.01672440063148617
aF-1.1291754675291088e-05
aF0.01546514438593194
aF0.01590002568710336
aF0.017851160577530667
aF-3.0143231294132988e-05
aF0.01700165312796731
aF0.017522586242521676
aF-3.0180166700422006e-05
aF-1.576634676236921e-05
aF0.016628941283860055
aF0.015411665559302623
aF0.016848693795898928
aF0.0991278999790679
aF0.016568306863563365
aF0.016877898356144172
aF0.03617917112509783
aF0.01677397103203848
aF0.016797954903554402
aF-1.0053654875719076e-05
aF0.016576360869296813
aF0.017072752167294425
aF0.016917476035597012
aF0.015076900583665509
aF0.024602213308583032
aF-3.1301312773734935e-05
aF0.016574542247015156
aF0.01686587397888628
aF0.01695697585538447
aF0.016914791840807464
aF0.016802877272339423
aF8.348727044804605e-06
aF0.02670073702316511
aF0.017141178910929256
aF0.016904624794568335
aF0.016875703558915323
aF0.01695936034224177
aF0.01651283180617158
aF0.017003878250920756
aF0.016736299314108027
aF0.01689735498812528
aF0.14144795353087192
aF0.01647128733367742
aF0.016655378589825798
aF0.016762372190072483
aF0.016594074524652225
aF0.01658390328415127
aF0.016650160861734875
aF0.11708741867902495
aF0.06955703300188754
aF0.13235298953160735
aF0.5778638922965968
aF0.3517632522457679
aF-1.855192992827881e-05
aF0.08711325388164548
aF-3.157539848785973e-05
aF-2.98134376137682e-05
aF0.5630754102227109
aF0.5227243776747175
aF0.336176100185269
aF0.34299268705797914
aF0.13288229023507458
aF0.21569441459947614
aF0.4865906428477915
aF0.30353675996924556
aF0.26492475692864303
aF0.20732299678521215
aF0.23109228690943873
aF0.15084285809184506
aF0.6423193381482126
aF0.18074876151911345
aF-2.960133524609887e-05
aF0.07236570076359072
aF-1.493682318542966e-05
aF-3.168108954731963e-05
aF0.1650134786274018
aF0.18379395897069806
aF0.2600983794038787
aF0.14740850418702456
aF0.043251441360628196
aF0.16689564355726505
aF0.5329991979924777
aF0.07969311969237403
aF0.15359243627372843
aF0.0007549084229214742
aF0.17395617845531897
aF0.044873019235112555
aF0.1918542299926318
aF0.5310775044454932
aF0.5504221526636979
aF0.5702195446099494
aF0.31412259574530665
aF0.2586538504934275
aF0.07969056108433792
aF0.04196738886814666
aF0.16192882995104174
aF0.006220158192324465
aF0.18718583502607844
aF-4.442354514910818e-06
aF0.23539677893190802
aF0.23612848547283471
aF0.33166843974115157
aF0.040375323609744385
aF0.13195732424080964
aF0.25476726527303484
aF0.16181166890428056
aF0.3314381150547403
aF0.46762565491569275
aF0.2796678995161841
aF0.29179754678012193
aF-1.5238691593921772e-05
aF0.5742476948530832
aF0.24226452501181805
aF-3.194139737594526e-05
aF0.3606511196341664
aF0.20841213917491386
aF0.15778468841490234
aF0.07976689559955874
aF8.265417259067931e-06
aF0.04361011706493123
aF0.12501018342726233
aF-2.9764976418711342e-05
aF-3.1568367177658985e-05
aF0.464135174079499
aF0.060430403163472146
aF0.03409432784767663
aF0.15640975582127625
aF0.2564857276985326
aF0.07351928213177494
aF0.08953835703779456
aF0.2369005108423199
aF-2.6044853738138585e-05
aF0.07644483104246191
aF0.05496003575717223
aF0.09344013541038976
aF0.2224651528797832
aF0.16064699166394014
aF0.4378252414521091
aF0.35377084730479025
aF0.09621156124644292
aF0.6923288423638589
aF0.11892810265931386
aF-8.579660276009093e-06
aF0.44280712573969394
aF0.6534718210311525
aF0.22252128226766077
aF0.3548289275984331
aF0.25292695760906003
aF0.42684225281112154
aF0.4292139933940877
aF0.24469046951794793
aF0.2646405411729158
aF0.01648683493460279
aF0.04391464599589545
aF-5.519067030945735e-06
aF0.08557549812189613
aF-2.6406829906733265e-05
aF0.1466351355096176
aF0.082337476019132
aF0.18763992291930753
aF0.046052238077666896
aF0.19783816261401688
aF0.027807013080121568
aF-1.9288745864987078e-05
aF0.28908442500834797
aF0.013903233639420254
aF0.09893377488471788
aF0.15377817204832311
aF0.23250432131856646
aF0.3262512746842203
aF0.29361159196817166
aF0.031270627079435176
aF0.12405559106714836
aF0.16199391860115542
aF0.15920967460994495
aF0.04491719764681479
aF0.3172921958279562
aF0.008063820857323378
aF0.44250146689554937
aF0.11801592316758791
aF0.3491392757525813
aF0.38723931795125166
aF0.23746786686614607
aF0.4530562591784242
aF0.14631119272281667
aF0.09335805692787424
aF0.26377958944817825
aF-1.1284218716323124e-05
aF0.325284226697542
aF-1.1414810563437072e-05
aF1.5823733908071347e-05
aF0.06485877263222539
aF-1.4945985745473678e-05
aF0.4105107311491727
aF-9.714471870925223e-06
aF0.7313859261401938
aF0.09134425318561679
aF0.030591258031707813
aF0.6559499256800421
aF0.14246955099767433
aF0.10534750801881154
aF0.49236361390511085
aF0.10624550967907487
aF0.6522315033448716
aF0.09756096910049106
aF0.2520173768466005
aF0.14636670955159037
aF0.2385391707257889
aF0.1765663804517228
aF0.2735440892843317
aF0.5257236600080408
aF-3.077008981078322e-05
aF0.49413283844273526
aF0.13375644998808456
aF0.20445566077452337
aF0.04398474069569769
aF-1.528120160587676e-05
aF0.43245860365627786
aF0.37631764671853674
aF0.1507996004159997
aF0.2746181668410479
aF0.06640085277440422
aF0.1473516325779647
aF0.2632730413133877
aF0.2055437644691298
aF0.37712561277301404
aF0.06891573591296263
aF0.07937602352542639
aF0.5026107772208368
aF0.13341052552729682
aF0.3724249008576499
aF0.06638366996809841
aF0.14991287800600084
aF0.0663561015634273
aF0.21392810970416853
aF0.08617886495393456
aF0.13203869004180646
aF0.17386865723235756
aF0.0666230719920251
aF0.13261900589334763
aF0.5370565870006399
aF0.1974576998407067
aF0.5384410881188879
aF0.2608856097719108
aF0.30017021452281023
aF0.054225307387597343
aF0.43055394467800356
aF0.5504544013320998
aF0.5767526004343564
aF0.5416252953764809
aF0.7502304492095955
aF0.1479374654861565
aF0.3214284404415477
aF0.5947690315943661
aF0.07182508474902694
aF0.7891916129339589
aF-1.5313068242317485e-05
aF0.5343089674415022
aF0.45259821026366076
aF0.8565064572342518
aF0.44543773780744544
aF0.06640872284731225
aF0.4062772972884221
aF0.2615232345209133
aF4.74530602545542e-06
aF0.19636437921462013
aF0.0825103007062773
aF0.28666766400839183
aF0.3159808017368615
aF0.1552959152923119
aF0.40982464041080124
aF0.5229493995592516
aF0.6417340588713745
aF0.49127737688113937
aF0.06790499265358552
aF0.10127871161366597
aF0.19621748481400658
aF0.6591642342549933
aF0.6204248947155011
aF0.08424156366926372
aF0.39763222115273456
aF0.06710226626713567
aF0.30233299339809516
aF0.23371515611245552
aF0.38760524028588694
aF0.06728178820043906
aF0.8569922083333408
aF0.22561429438802305
aF0.11768493134224345
aF0.3868467698653446
aF0.2912242961897924
aF0.10323537764390345
aF0.3162730819307078
aF0.19826928102658536
aF0.9021780330765643
aF0.13144594779458263
aF0.6259985798577361
aF0.5415704153594021
aF0.5277401738586809
aF0.2930472322858475
aF0.263356811594619
aF0.6558043262295561
aF0.3147776193145915
aF0.3094629204900885
aF0.28312299636300065
aF-9.81203649530471e-06
aF0.015424677935945041
aF0.0522840861201912
aF0.16005858287937968
aF0.42306719815037264
aF0.29482021052663354
aF0.3503922492734777
aF0.7089521934611014
aF0.098196160334032
aF0.38438991975119263
aF0.08220716614248724
aF0.20959985822440563
aF0.12980760712515993
aF0.11763879932598176
aF0.2109663867537055
aF0.7340463263080474
aF0.5175106053267893
aF0.1962916520017397
aF0.6012596702287731
aF-3.2246698523419326e-05
aF0.7011355141527909
aF0.5378572263312673
aF0.0665638727663258
aF0.6843480026358457
aF0.4306907018175168
aF0.6780189673293919
aF0.6047908830612281
aF0.3552126382998275
aF0.7676689044927429
aF0.07401836089939762
aF0.14056223662565026
aF0.27149947681164255
aF0.017414059506306145
aF0.07896528598006203
aF0.2653519079688329
aF1.0608533146035435
aF-2.156926065266518e-05
aF0.11467350634799534
aF0.2569496222381038
aF0.09576292237732975
aF0.21091035578121575
aF0.14023405331280303
aF0.3606137644557945
aF0.19434952734013677
aF0.8474636743316939
aF0.13180749505599687
aF0.5876205968204369
aF0.7350199152117689
aF0.29556561344065946
aF0.6316332558124831
aF0.26448801063591754
aF0.07217051978688005
aF0.31727666553354616
aF0.08605300753415612
aF0.13143142146414455
aF0.014751157887274768
aF0.13363044394308066
aF-2.548988061379376e-05
aF0.21005817578036012
aF0.8095786862590408
aF0.3768077057620589
aF0.015096279333619567
aF0.06620440796162574
aF0.6410533474132891
aF0.4788463800084486
aF0.7581321813416952
aF0.25767343802603415
aF0.4667157210633537
aF0.022037271209886633
aF0.5294589113509893
aF0.5506881978980074
aF0.7946405111433501
aF0.15485485001365662
aF-1.0302510129012177e-05
aF0.2597582032742647
aF0.7107390662072968
aF0.2819603946708855
aF0.6280241947435568
aF0.3756712180213926
aF0.257682326658518
aF0.6622708890575657
aF0.37707345743137655
aF0.13973441640863582
aF0.26723869405878053
aF0.4544957269889651
aF0.3633378753664598
aF0.015838023239628463
aF0.08356301691259027
aF0.5429421514320727
aF6.684890304420321e-06
aF0.9019501560123206
aF0.48187044361110054
aF0.04342502113801183
aF-6.923614164655589e-06
aF0.38626334198939727
aF0.3903727203383922
aF0.37049761846847584
aF0.25663354546182227
aF0.08368828077415369
aF0.5961610505256174
aF0.8312851831185011
aF1.02460467244524
aF0.5815124337707855
aF0.5663423127179845
aF0.3555828882768952
aF0.37989184650666674
aF0.8262385427088046
aF0.7301303002774473
aF0.2574339568387223
aF0.19433405359932143
aF0.8663081514758653
aF0.31676632676644534
aF0.016728354136377632
aF0.18284477181663172
aF-2.931510470727261e-05
aF0.860221940486638
aF0.10318814546220079
aF0.057592324856560406
aF1.1121805817710153
aF0.6274812891783297
aF0.6144132001606528
aF0.017357059128801033
aF0.2179233130458762
aF0.6708219207882684
aF0.44143669622245296
aF0.015084912644725446
aF0.14709467155940414
aF0.43194866095463214
aF0.13312679207305544
aF0.10115617959924483
aF0.25944064422216906
aF0.1776273226729459
aF0.42993012807239817
aF0.13363596132884714
aF0.6455279624002492
aF0.4996893724816722
aF0.5150971879803681
aF0.6647574415044839
aF0.5020111406051733
aF0.13028174564199668
aF0.6483759189661438
aF0.1010791843259935
aF0.649011530051713
aF0.6165852357155726
aF0.16718663504630582
aF0.02161161775459819
aF-8.81822617238015e-06
aF0.3675479460180737
aF0.6083018901207464
aF0.0670112359278785
aF0.07968850557046858
aF0.20865195442378193
aF0.2552654059910089
aF0.08188325107447314
aF0.06629252165249477
aF0.19660790375733406
aF0.1797809947811082
aF0.2896105774644906
aF0.13022017509860584
aF0.16510663436919915
aF0.43745408991199053
aF0.19724727233818795
aF0.43041536115320334
aF0.7291956745159789
aF0.10621358523891589
aF0.7044946179331846
aF0.4836911778032813
aF0.6709159911432745
aF0.0666044739456142
aF0.6693682798881597
aF0.015561037158790203
aF0.6102424936739732
aF0.32974167128523213
aF0.2037223790298106
aF0.554481868844551
aF0.6582451115366621
aF0.6955801766263305
aF0.09679416277233477
aF0.13243545858535644
aF0.7914461681179121
aF0.31804459261495444
aF0.7173013872634342
aF0.5888117334809913
aF0.4398224357667875
aF0.32117993335994566
aF0.131449353791953
aF0.14682644787322152
aF0.577658898632039
aF0.6193564717749243
aF0.2871267449064434
aF0.5657507730640332
aF0.37248914456077786
aF0.1303037432990748
aF0.0823525466948416
aF0.5753066828629718
aF-3.3886940832505985e-05
aF0.12834505065648738
aF0.44568991159394367
aF0.6321086664725772
aF0.6557725645916275
aF0.28801016694912907
aF0.6493170843025715
aF0.19710709453955344
aF0.43634979692591136
aF0.06687560499955669
aF0.08414677872404663
aF0.6855926431060442
aF0.38057795961514307
aF0.20490158000607162
aF0.0665176119529054
aF-1.9189846442113634e-05
aF0.6246850485298774
aF0.08614113911426102
aF0.23853548890038834
aF0.28961557818327677
aF0.7016636324910861
aF0.6494816292965466
aF0.5526961904479188
aF0.4304362382000053
aF0.6174587608839537
aF0.6543021416579906
aF0.5815008720512043
aF0.2280427327711374
aF0.13070502817096008
aF0.4769728489258598
aF0.7033587707087081
aF0.491940518126162
aF0.5571783770765806
aF0.3163419367683953
aF0.6819303031290587
aF0.382649159645712
aF0.24252177659011842
aF0.006326674196523996
aF0.10301763723321189
aF0.12159985450740596
aF0.13985206255772775
aF0.31807877790254446
aF0.13014999077715306
aF0.6501587350626257
aF0.5857424204347348
aF0.4706827050475857
aF0.42843194144288166
aF-2.8371088457657123e-05
aF0.7202390794261473
aF0.19565034953594873
aF-3.003935170076133e-05
aF0.23258897532194656
aF0.36783053406574995
aF0.6529234762175746
aF0.23138819004507072
aF0.4964638108782786
aF0.3873372230195029
aF0.6358474166169006
aF0.6137029260378397
aF0.2541980413398379
aF0.3184817080825413
aF0.06471945759920317
aF0.6152516280501468
aF0.6691119010553015
aF0.19541059776855452
aF0.6786112680338117
aF0.7099168879179665
aF0.3721514747326533
aF0.451562259654557
aF0.19651791168350874
aF0.6707896464520724
aF0.1945388234495793
aF0.13321062136193884
aF0.6825011112402564
aF0.6527261115385827
aF0.586454529565509
aF0.06648618516647042
aF0.5863549030036785
aF0.22432860762551332
aF0.6293038692847706
aF0.2727804368488176
aF0.6920546615670031
aF0.7176924798239606
aF0.4058918926803381
aF0.5600123065580682
aF0.25566552387229
aF-3.128954353703861e-05
aF0.24747284553810633
aF0.6561245336308477
aF0.7311315516690309
aF0.13361077402699095
aF0.4655836562347675
aF0.3725721675726579
aF0.014452419345601264
aF0.7666380734744811
aF0.3832228295905722
aF0.37343684340237226
aF0.6229259449580828
aF0.6085899636660264
aF0.3822589288746445
aF0.3161138413710578
aF0.3721317334388492
aF0.1292345486337938
aF0.3771198313608828
aF0.6294369738271719
aF0.6485587570924172
aF0.009441291233407423
aF0.7036317902192031
aF0.016916949643951185
aF0.45828232011257874
aF0.6473763920249298
aF0.6795554790868441
aF0.7540466351853161
aF0.5616662408963076
aF0.6857851257530543
aF0.6768179831057273
aF0.7412282211311552
aF0.5390495812477964
aF0.7550802264480678
aF0.06658763101775467
aF0.08392093728083383
aF0.5798118922531637
aF0.3753776307061756
aF0.2708578234201071
aF0.827187773179999
aF0.37773615739123434
aF0.5300962870757169
aF0.017238953358886366
aF0.10515186612207739
aF0.31916885399499506
aF0.2617358536372296
aF0.5538905966632144
aF0.680412770068374
aF0.6812663054911345
aF-1.3199512139294711e-05
aF0.4801512859750767
aF0.3195058877055974
aF0.2530877422399769
aF0.44234647586937603
aF0.1334252406980867
aF0.3766227983155406
aF0.6423745502541847
aF0.2921185989228827
aF0.6768600849521529
aF0.7854869209875246
aF0.6325960095536036
aF0.5944366158515475
aF0.40882491242109964
aF0.48116366820794276
aF0.5872798950682121
aF0.645727047089204
aF0.5295139598206435
aF0.06605016187732327
aF0.7899521688948505
aF0.003684176318908605
aF0.5521140305129499
aF0.5485694957958298
aF0.06566787968918408
aF0.6479156011296543
aF0.07166877352264978
aF0.7455849168080735
aF0.5156187711037847
aF0.23737640166282814
aF0.3178210615670931
aF0.20388960148837
aF0.10455615875655244
aF0.328914738437863
aF0.8879160318931918
aF0.06650037034812373
aF0.2687488569079539
aF0.29025045124418414
aF-6.503089030829301e-06
aF0.16460688248541322
aF0.30337512641578135
aF0.7718780035303663
aF0.6831852271947634
aF-2.280904789131455e-05
aF0.7696807833727881
aF0.49892553903054493
aF0.6543780636274836
aF0.373443100844828
aF-2.9328643184722836e-05
aF-2.322431557288951e-05
aF0.6432221095931441
aF0.4972156906331886
aF0.6131628464556478
aF0.06752331500109232
aF0.5845449099211173
aF0.4299135658224529
aF0.06645393591057225
aF0.6304496610503301
aF0.677711787875193
aF0.7061944773208495
aF0.3746026374745277
aF0.5332201484997672
aF0.3294492364353516
aF0.6481300434878694
aF0.41045187042616504
aF0.006662653925403994
aF0.6677521769967987
aF0.5341425261067427
aF0.839578188049487
aF0.6565378506803112
aF0.6899465860635141
aF0.1309902934002234
aF0.7822225459384784
aF0.6497364291500398
aF0.6765860157895323
aF0.8421701675065285
aF0.3181122701873327
aF0.5749102170581479
aF0.8829795078119602
aF0.016246634882529865
aF0.15452965114814088
aF0.6050220030585045
aF0.685549993984722
aF0.7807545760967765
aF0.6584709237748063
aF0.6659462760637314
aF0.7554022156575848
aF0.6002951948958755
aF0.5741600909038049
aF0.06640802910936339
aF0.6532701527771496
aF0.5819532552950908
aF0.6163086367886317
aF0.48340213875331317
aF0.06601383645751024
aF0.4600228338101333
aF0.19923813904487986
aF0.32036022978271106
aF0.5758391360366097
aF0.6801963244884255
aF0.5810322099698775
aF0.859990859787727
aF0.6829972945153977
aF0.574373393854303
aF0.6313987577654325
aF0.3914346025260804
aF0.7271232741218889
aF0.6970213962340992
aF0.8670240143800747
aF0.7210730684283249
aF0.477777070107138
aF0.11305780073617866
aF0.11759580288462734
aF0.2565680607362202
aF0.06554871660427475
aF0.6958317149404576
aF0.4532721458055944
aF0.7011639326332118
aF0.5824120657638012
aF0.6573538765279516
aF0.7244471983277552
aF0.08414564204583197
aF0.5863728381953486
aF0.0668376331069096
aF0.6468202811643504
aF0.572973317579136
aF0.5507510230328632
aF3.5482135514186552e-06
aF0.6372520316287709
aF0.28207892109934507
aF0.5369489916385413
aF0.0813978398844597
aF0.19552239280793282
aF0.7834457662583794
aF0.06647688445891609
aF0.31543238894379844
aF0.6484118430278532
aF0.5429007089477249
aF0.5838113698997711
aF0.49298788477817546
aF0.4857892657792404
aF0.14773673743431504
aF0.750331667387989
aF0.4819677234118629
aF0.639108109467942
aF0.06616028414062747
aF0.6795682892323005
aF-1.601932740591394e-05
aF0.19619672751202266
aF0.06779725017868055
aF0.0833748323360517
aF0.704442731688002
aF0.28017622214420657
aF0.6545371356354739
aF0.7460433425817019
aF0.6873564878886484
aF0.6204918947816784
aF0.06560022254235243
aF0.4942767372243715
aF0.7526185859480039
aF0.3160831307479395
aF0.5440729469578311
aF0.13347711319421895
aF0.6486492333607541
aF0.13379457466981703
aF0.8473717329419159
aF0.5003585957093075
aF0.25480086189931495
aF0.345189547128665
aF0.4706289865397344
aF0.45746170831679667
aF0.6404631433840264
aF0.13144065284446604
aF0.5764647392472626
aF0.388754018757111
aF0.6545831492667418
aF0.47917056252029866
aF0.6306727198266899
aF0.6444022003276024
aF0.679020810826005
aF0.017102602731586813
aF0.2310374676562823
aF0.7424524883333588
aF0.34757991461914584
aF0.3697451759458299
aF0.4483429756160735
aF0.7591242993239193
aF0.17548625462345635
aF0.7504549476416478
aF0.6796011751089486
aF0.5577211707768779
aF0.47025458354126126
aF0.6527847258784147
aF0.6696205765196885
aF0.694208977638751
aF0.654970707914071
aF0.20912591366746058
aF0.3750444615099302
aF0.7333256387836302
aF0.7605633870838973
aF0.06631482385339016
aF0.676673287342707
aF0.1333606907527023
aF0.3381148327907848
aF0.6415259382214762
aF0.5341654265892881
aF0.26049792777845093
aF0.5907635116759171
aF0.7451306250189975
aF0.46432310396405896
aF0.1481889181042817
aF0.3535271809230096
aF0.7024450396300153
aF0.4471000455281282
aF0.6807858587313107
aF0.13316071211417269
aF0.519963003479492
aF0.7399595814530815
aF0.681626801709819
aF0.379488085332083
aF0.14591326827509565
aF0.5306825400797441
aF0.1969067654140786
aF0.54983619041999
aF0.5547543120244316
aF0.48716301417206953
aF0.3678817881113541
aF0.4401534244656724
aF0.6929660376102604
aF0.7792223649109937
aF0.5001726334546182
aF0.6487762854489039
aF0.4300887962817459
aF0.20816779202993274
aF0.6225425851433921
aF0.34875982065854316
aF0.4111408367941265
aF0.33930942814418064
aF0.10293254289831832
aF-1.5632994775138798e-05
aF0.14670477581276753
aF0.7313955155293828
aF0.14817637831369623
aF0.6809424170735161
aF0.5131387423003448
aF0.668946582518295
aF0.480840248543426
aF0.6204042827018887
aF0.06650392986792575
aF0.656261912540324
aF0.6534686930509159
aF0.7106492661373669
aF0.04158959399669104
aF0.3218364863747767
aF0.07930317176951318
aF0.47930768297501203
aF0.4976281675954555
aF0.5621855989696818
aF0.19434995804948274
aF0.08253147925760906
aF0.7085631087087125
aF0.8319184327999971
aF0.193457025737926
aF0.6497721318031293
aF0.6796019487921447
aF0.8478459737608603
aF0.7464806338426948
aF0.43713208635981804
aF0.7055671548702445
aF0.6622080798230079
aF0.6043053402476777
aF0.6532497999940592
aF0.6371620140275853
aF0.6445649682718595
aF0.7017674422324109
aF0.7743877023478061
aF0.7584481088351116
aF0.653332258627517
aF0.4256707032942928
aF0.04134918097581419
aF0.20269879063456386
aF0.06653880866787931
aF0.6801809465686937
aF0.6502515304250629
aF0.012097676274245295
aF0.31911909083493084
aF0.6165186395129831
aF0.2707873212359453
aF0.49008515181065615
aF0.4067900873260153
aF0.07167043716098709
aF0.6790561394866486
aF0.6789117836497356
aF0.20632575054631186
aF0.6247967528933493
aF0.9797974878889169
aF0.6157496390076607
aF0.6361257835458032
aF0.5893138550236947
aF0.699587000313382
aF0.6535562521665077
aF0.4259003818510445
aF0.8139434157713801
aF0.3163691136269784
aF0.6824525161549482
aF0.7720305800004357
aF0.06749958481857421
aF0.8041941529201062
aF-3.1888063345864026e-05
aF0.261142577229625
aF0.2834768558616183
aF0.527894059510543
aF0.7070947901814741
aF0.49964114879373556
aF0.24842977318222648
aF0.3973798360047751
aF0.4131084061110948
aF0.6064946170199135
aF0.4979134927113176
aF0.6813732780602706
aF0.7259905105317612
aF1.4890820196455934e-05
aF0.6600585766310649
aF0.639974898377246
aF0.3716994531174538
aF0.7585770261858369
aF0.6508832664953323
aF0.9301905407501061
aF0.11285702143754373
aF0.8073435862625451
aF0.6804254073605445
aF0.4823292618299373
aF0.537677425801347
aF0.8521962452242904
aF0.6502690442702241
aF0.3491264005019441
aF0.5008004942724922
aF0.29761760430680795
aF0.7924750140486592
aF0.6035130754191949
aF0.5119097993863981
aF0.789891973251049
aF0.2080075309341054
aF0.06753900041048455
aF0.7485220557460415
aF0.7017128717408236
aF0.34169059801833557
aF0.07612057795148175
aF0.7160597767787982
aF0.6345265534801983
aF0.6296607270512755
aF0.6332351411910833
aF0.701419950869397
aF0.4175868923287145
aF0.6004294872336864
aF0.14977692879411197
aF0.3751951693385456
aF0.22766297454546525
aF0.20468436837935533
aF0.053210993845348664
aF-1.6194674636871298e-06
aF0.41700252794580583
aF0.21102426851776235
aF0.6470859387496177
aF0.30211743734336727
aF0.69794721543358
aF0.5686549516056645
aF0.8007752235008629
aF0.4148593817831636
aF0.759483637950344
aF0.7148013873743326
aF0.2645698595282213
aF0.7404231417242277
aF0.26736878945955
aF0.7187101623751904
aF0.724942964960499
aF0.6258285187676798
aF0.5426023234649104
aF0.07995435274868701
aF0.22442073967280773
aF0.04095170115892621
aF0.2271424048623727
aF0.7291740865810432
aF0.5441461535691237
aF0.7569865792051429
aF0.7389917517784346
aF0.4262042534952566
aF0.03888674780501278
aF0.21831489011549543
aF0.04720141566614977
aF0.6553203152408265
aF0.6612887631127222
aF0.467991305998257
aF0.3399210904572376
aF0.384734220417557
aF0.7461546620393222
aF0.7533015275017498
aF0.7936442722781165
aF0.26601820326182235
aF0.15426099186854003
aF0.49149050779991965
aF0.6817553013288444
aF0.749561074314351
aF0.14459099617797522
aF0.014349533090019406
aF0.19022697710084602
aF0.734806578227257
aF0.6864742730938107
aF0.01527123619969828
aF0.05334645450273978
aF0.5606872860636374
aF0.30688132908177357
aF0.13401091983179692
aF0.6892126272321843
aF0.4402049893505251
aF0.22664838689791278
aF0.4776947775230873
aF0.8931961761785536
aF0.5564824396137333
aF0.4613360326528193
aF0.6793708159390239
aF0.11288115321233771
aF0.21049794984516135
aF0.2671826334227072
aF0.6020278300336663
aF0.11218387685549036
aF0.6305645099460415
aF0.07987044019675871
aF0.7275611526220627
aF0.7924404297115863
aF0.5379110010989834
aF-3.2759256175296514e-05
aF0.33876691600476594
aF0.6902376891649165
aF0.7735771499349728
aF0.03800390974933476
aF0.11524953111787539
aF0.496365599792465
aF0.447101064122704
aF0.41608079405688736
aF0.11271732966752568
aF0.01659050556161379
aF0.6412244734226951
aF0.29016458451914184
aF0.2692221448508203
aF0.045864333190704265
aF0.04145846090240557
aF0.13055603625114864
aF0.21468473788898335
aF0.6743825817420994
aF0.558623379254418
aF0.057051349914545746
aF0.25753995028332444
aF0.5603588119128426
aF0.716421303615058
aF0.3770699594283866
aF0.7063192756451011
aF0.4193875060165704
aF0.061467338791443726
aF0.2320993227089989
aF0.15205667028217285
aF0.15436378976500809
aF0.15010465324845113
aF0.5076953976441003
aF0.6584654967481218
aF0.4760621717304705
aF0.15408109710587237
aF0.7205285335812626
aF0.33583182535111744
aF0.2269759645776399
aF0.3965188359945513
aF-2.2378140549506043e-05
aF0.46181258758264354
aF0.11274202051844107
aF0.14992612247979542
aF0.5241322796817132
aF0.25472279730506076
aF0.07605416200801818
aF0.2649109366822735
aF-1.9541815107881888e-05
aF0.037981411531436304
aF0.6099240443377152
aF0.7034945126147969
aF-2.7515440758296705e-05
aF0.4936454728805413
aF0.3065647123820332
aF0.7179511574032174
aF0.32024662237803136
aF0.2029089191822666
aF0.03861622257482056
aF0.18999870515104567
aF0.016969700939257315
aF0.14891969603788358
aF0.4775251906389766
aF0.3011893706277031
aF0.5984695726271174
aF0.3367774584405523
aF0.038388685587765536
aF0.03858355009888115
aF0.6799223777388481
aF0.22910437362732772
aF0.7444795205858603
aF0.6658727609379809
aF0.654370965736673
aF0.3737026867641662
aF0.7651783017262508
aF0.16910451780888636
aF0.2553897378327612
aF0.15260646623755036
aF0.4777572439358839
aF-9.783922354067442e-06
aF0.30093888058185314
aF0.6953916114853116
aF0.2093465759926123
aF0.6547297883180314
aF0.717655871323887
aF0.5648142967296916
aF0.6930856471108302
aF0.7492207078392252
aF0.20676541422399008
aF0.6600362352480946
aF0.1242350147719069
aF0.7141071479394463
aF0.30852364792018827
aF0.6688940407388482
aF-2.1149271641984768e-05
aF0.7023503513928313
aF0.3839942746668177
aF0.03636863724128414
aF0.16952047994780894
aF0.7444119237277382
aF0.5067216445312868
aF0.03646142531383445
aF0.07809495561103397
aF0.18946258116847492
aF-2.4694754218401727e-05
aF0.01693893578945449
aF0.0551764170930098
aF0.18917120953675148
aF0.37669517943157826
aF0.01613404578714439
aF0.44471382144323135
aF0.46919799953562835
aF0.5365441409080147
aF0.7618675111823872
aF0.2257832069826895
aF0.3048145645367888
aF0.6460545616866886
aF0.574443331732815
aF0.30661675061114657
aF7.09914643359788e-05
aF0.4384312834980397
aF0.27029422264067904
aF0.0435042850480003
aF0.7247126528771957
aF0.07076288138978981
aF0.7494893119353594
aF0.46609368065159407
aF0.21618027738943724
aF0.07625750222448247
aF0.1663252285316097
aF0.07759075386518521
aF0.6736575437322738
aF0.736640549472924
aF0.22500450711431785
aF0.2680232131356308
aF0.017901513918075374
aF0.074417971397986
aF-1.5086503491801295e-05
aF0.37339367864612916
aF0.6965081533082138
aF0.5431280573550383
aF0.33876109096149953
aF0.1454738917814251
aF0.5835979664252555
aF0.10877687958408488
aF0.5111770086795824
aF0.18871982521415775
aF0.5775911263181301
aF0.8702398626893282
aF0.15416378709681844
aF0.13237954622994508
aF0.15540027000337187
aF0.5975574093961624
aF0.4071012486182801
aF0.42761501901269483
aF0.2980418724326559
aF0.2659238362718157
aF0.18523720040496272
aF-2.372916273518655e-05
aF0.4995299165824467
aF0.1409754263505505
aF0.7262889549221696
aF0.678530005966469
aF0.7032081471280098
aF0.22938418810122085
aF0.07609417840764987
aF0.7162868396764606
aF0.5309152449230687
aF0.7402697909688087
aF0.21708447037311718
aF0.11398743254098376
aF0.6126464937151845
aF0.42563549513185883
aF0.3523631912700007
aF1.023950835764905
aF0.2263527747596843
aF0.399992019830663
aF0.5266221411681746
aF0.3959780569430338
aF0.23851570195974015
aF0.04359562672930073
aF-3.0533755268180585e-05
aF0.191158113650717
aF0.20972283469690023
aF0.44522879564469653
aF0.030180852165051508
aF0.37368236320121895
aF0.6403947086115935
aF0.480025725333991
aF0.36342302490408995
aF0.11011805783515705
aF0.2265443743895066
aF0.1679512945817474
aF0.26122899297433344
aF0.6555650575309291
aF0.3119458109832025
aF0.30062788442304633
aF0.7856133602447555
aF0.44659591298995194
aF0.4340865746340796
aF0.7248394589065552
aF0.038569548534308495
aF0.5220314102269268
aF0.22990230160007874
aF0.37811813102211955
aF0.5672102960503986
aF0.30630580241789973
aF0.4244250348587628
aF0.3399337303703849
aF0.3384297976297139
aF0.7167694624158871
aF0.11313882181479107
aF-1.985091302492137e-05
aF0.6031439917267791
aF0.7669734067585359
aF0.29139052889209793
aF0.5624760382655105
aF0.19710813222816226
aF0.05414010879109599
aF0.04359071435077233
aF0.41012439177863946
aF0.2655808178398047
aF0.20507605848497867
aF0.2074557602086715
aF0.01646745686623463
aF0.20168012785271205
aF0.7007426158646779
aF0.7361070005925456
aF0.346482344703102
aF0.5527004814885244
aF0.5769812630574864
aF0.1692035301619783
aF0.3743018141178065
aF-4.370586052626635e-06
aF0.8555248627917078
aF0.22994420135090898
aF0.11435973693033707
aF0.6970383879132487
aF0.7593886366439437
aF0.26640502183082715
aF0.9080290885474427
aF0.4483226768318511
aF0.7149616003128476
aF0.1510288393949879
aF0.038511261351754644
aF0.03814932545478156
aF0.30272114620509605
aF0.284131143224871
aF0.38006207331265474
aF0.6582399286576774
aF0.455534287873018
aF0.4028482862042564
aF0.20900734038782431
aF0.07814766686380725
aF0.40790495087572687
aF0.5219325253983227
aF0.1157488074063373
aF0.18311261521314304
aF0.35548353546313205
aF0.4373611499178218
aF0.4583347677181986
aF0.41437502212464006
aF0.7426867332078091
aF0.4968336788956904
aF0.05598589340290694
aF0.6392006835065525
aF0.07993866035665187
aF0.2288560984011827
a.