(lp0
I-1
aI-1
aI-1
aI-1
aI-1
aI-1
aI-1
aI-1
aI-1
aI-1
aI-1
aI-1
aI-1
aI-1
aI-1
aI-1
aI-1
aI-1
aI-1
aI-1
aI-1
aI-1
aI-1
aI-1
aI-1
aI-1
aI-1
aI-1
aI-1
aI-1
aI-1
aI-1
aI-1
aI-1
aI-1
aI-1
aI-1
aI-1
aI-1
aI-1
aI-1
aI-1
aI-1
aI-1
aI-1
aI-1
aI-1
aI-1
aI-1
aI-1
aI-1
aI-1
aI-1
aI-1
aI-1
aI-1
aI-1
aI-1
aI-1
aI-1
aI-1
aI-1
aI-1
aI-1
aI-1
aI-1
aI-1
aI-1
aI-1
aI-1
aI-1
aI-1
aI-1
aI-1
aI-1
aI-1
aI-1
aI-1
aI-1
aI-1
aI-1
aI-1
aI-1
aI-1
aI-1
aI-1
aI-1
aI-1
aI-1
aI-1
aI-1
aI-1
aI-1
aI-1
aI-1
aI-1
aI-1
aI-1
aI-1
aI-1
aI-1
aI-1
aI-1
aI-1
aI-1
aI-1
aI-1
aI-1
aI-1
aI-1
aI-1
aI-1
aI-1
aI-1
aI-1
aI-1
aI-1
aI-1
aI-1
aI-1
aI-1
aI-1
aI-1
aI-1
aI-1
aI-1
aI-1
aI-1
aI-1
aI-1
aI-1
aI-1
aI-1
aI-1
aI-1
aI-1
aI-1
aI-1
aI-1
aI-1
aI-1
aI-1
aI-1
aI-1
aI-1
aI-1
aI-1
aI-1
aI-1
aI-1
aI-1
aI-1
aI-1
aI-1
aI-1
aI-1
aI-1
aI-1
aI-1
aI-1
aI-1
aI-1
aI-1
aI-1
aI-1
aI-1
aI-1
aI-1
aI-1
aI-1
aI-1
aI-1
aI-1
aI-1
aI-1
aI-1
aI-1
aI-1
aI-1
aI-1
aI-1
aI-1
aI-1
aI-1
aI-1
aI-1
aI-1
aI-1
aI-1
aI-1
aI-1
aI-1
aI-1
aI-1
aI-1
aI-1
aI-1
aI-1
aI-1
aI-1
aI-1
aI-1
aI-1
aI-1
aI-1
aI-1
aI-1
aI-1
aI-1
aI-1
aI-1
aI-1
aI-1
aI-1
aI-1
aI-1
aI-1
aI-1
aI-1
aI-1
aI-1
aI-1
aI-1
aI-1
aI-1
aI-1
aI-1
aI-1
aI-1
aI-1
aI-1
aI-1
aI-1
aI-1
aI-1
aI-1
aI-1
aI-1
aI-1
aI-1
aI-1
aI-1
aI-1
aI-1
aI-1
aI-1
aI-1
aI-1
aI-1
aI-1
aI-1
aI-1
aI-1
aI-1
aI-1
aI-1
aI-1
aI-1
aI-1
aI-1
aI-1
aI-1
aI-1
aI-1
aI-1
aI-1
aI-1
aI-1
aI-1
aI-1
aI-1
aI-1
aI-1
aI-1
aI-1
aI-1
aI-1
aI-1
aI-1
aI-1
aI-1
aI-1
aI-1
aI-1
aI-1
aI-1
aI-1
aI-1
aI-1
aI-1
aI-1
aI-1
aI-1
aI-1
aI-1
aI-1
aI-1
aI-1
aI-1
aI-1
aI-1
aI-1
aI-1
aI-1
aI-1
aI-1
aI-1
aI-1
aI-1
aI-1
aI-1
aI-1
aI-1
aI-1
aI-1
aI-1
aI-1
aI-1
aI-1
aI-1
aI-1
aI-1
aI-1
aI-1
aI-1
aI-1
aI-1
aI-1
aI-1
aI-1
aI-1
aI-1
aI-1
aI-1
aI-1
aI-1
aI-1
aI-1
aI-1
aI-1
aI-1
aI-1
aI-1
aI-1
aI-1
aI-1
aI-1
aI-1
aI-1
aI-1
aI-1
aI-1
aI-1
aI-1
aI-1
aI-1
aI-1
aI-1
aI-1
aI-1
aI-1
aI-1
aI-1
aI-1
aI-1
aI-1
aI-1
aI-1
aI-1
aI-1
aI-1
aI-1
aI-1
aI-1
aI-1
aI-1
aI-1
aI-1
aI-1
aI-1
aI-1
aI-1
aI-1
aI-1
aI-1
aI-1
aI-1
aI-1
aI-1
aI-1
aI-1
aI-1
aI-1
aI-1
aI-1
aI-1
aI-1
aI-1
aI-1
aI-1
aI-1
aI-1
aI-1
aI-1
aI-1
aI-1
aI-1
aI-1
aI-1
aI-1
aI-1
aI-1
aI-1
aI-1
aI-1
aI-1
aI-1
aI-1
aI-1
aI-1
aI-1
aI-1
aI-1
aI-1
aI-1
aI-1
aI-1
aI-1
aI-1
aI-1
aI-1
aI-1
aI-1
aI-1
aI-1
aI-1
aI-1
aI-1
aI-1
aI-1
aI-1
aI-1
aI-1
aI-1
aI-1
aI-1
aI-1
aI-1
aI-1
aI-1
aI-1
aI-1
aI-1
aI-1
aI-1
aI-1
aI-1
aI-1
aI-1
aI-1
aI-1
aI-1
aI-1
aI-1
aI-1
aI-1
aI-1
aI-1
aI-1
aI-1
aI-1
aI-1
aF-0.8
aI-1
aI-1
aI-1
aI-1
aI-1
aI-1
aI-1
aI-1
aI-1
aI-1
aI-1
aI-1
aI-1
aI-1
aF-0.9
aI-1
aI-1
aI-1
aI-1
aI-1
aI-1
aI-1
aI-1
aI-1
aI-1
aI-1
aI-1
aI-1
aI-1
aI-1
aI-1
aI-1
aI-1
aI-1
aI-1
aI-1
aI-1
aI-1
aI-1
aI-1
aI-1
aI-1
aF-0.9
aI-1
aI-1
aI-1
aI-1
aI-1
aI-1
aI-1
aI-1
aI-1
aI-1
aI-1
aI-1
aI-1
aI-1
aI-1
aI-1
aI-1
aI-1
aI-1
aI-1
aI-1
aI-1
aI-1
aI-1
aI-1
aI-1
aI-1
aI-1
aI-1
aI-1
aI-1
aI-1
aI-1
aI-1
aI-1
aI-1
aI-1
aI-1
aI-1
aI-1
aI-1
aI-1
aI-1
aI-1
aI-1
aI-1
aI-1
aI-1
aI-1
aI-1
aI-1
aI-1
aI-1
aI-1
aI-1
aI-1
aI-1
aI-1
aI-1
aI-1
aI-1
aI-1
aI-1
aI-1
aI-1
aI-1
aI-1
aI-1
aI-1
aI-1
aI-1
aI-1
aI-1
aI-1
aF-0.9
aI-1
aI-1
aI-1
aF-0.7
aI-1
aI-1
aI-1
aI-1
aI-1
aI-1
aI-1
aI-1
aI-1
aI-1
aI-1
aI-1
aI-1
aI-1
aI-1
aI-1
aI-1
aI-1
aI-1
aI-1
aI-1
aI-1
aI-1
aI-1
aI-1
aI-1
aI-1
aI-1
aI-1
aI-1
aI-1
aI-1
aI-1
aI-1
aI-1
aI-1
aI-1
aI-1
aI-1
aI-1
aI-1
aI-1
aI-1
aI-1
aI-1
aI-1
aI-1
aI-1
aI-1
aI-1
aI-1
aI-1
aI-1
aI-1
aI-1
aI-1
aI-1
aI-1
aI-1
aI-1
aI-1
aI-1
aI-1
aI-1
aI-1
aI-1
aI-1
aF-0.8
aI-1
aI-1
aI-1
aF-0.9
aI-1
aI-1
aI-1
aI-1
aI-1
aI-1
aI-1
aI-1
aI-1
aI-1
aI-1
aI-1
aI-1
aI-1
aI-1
aI-1
aI-1
aI-1
aI-1
aI-1
aI-1
aI-1
aI-1
aI-1
aI-1
aI-1
aI-1
aI-1
aI-1
aI-1
aI-1
aI-1
aI-1
aI-1
aI-1
aI-1
aI-1
aI-1
aI-1
aI-1
aI-1
aF-0.9
aI-1
aI-1
aI-1
aI-1
aI-1
aI-1
aI-1
aI-1
aI-1
aI-1
aI-1
aI-1
aI-1
aI-1
aI-1
aI-1
aI-1
aI-1
aI-1
aI-1
aI-1
aI-1
aI-1
aI-1
aI-1
aI-1
aI-1
aI-1
aI-1
aI-1
aI-1
aI-1
aI-1
aI-1
aI-1
aI-1
aI-1
aI-1
aI-1
aI-1
aI-1
aI-1
aI-1
aI-1
aI-1
aI-1
aI-1
aI-1
aI-1
aI-1
aI-1
aI-1
aI-1
aI-1
aI-1
aF-0.7
aI-1
aI-1
aI-1
aI-1
aI-1
aI-1
aI-1
aI-1
aI-1
aI-1
aI-1
aI-1
aI-1
aI-1
aI-1
aI-1
aI-1
aI-1
aI-1
aI-1
aI-1
aI-1
aF-0.7
aI-1
aI-1
aI-1
aI-1
aI-1
aI-1
aI-1
aI-1
aF-0.5
aI-1
aI-1
aI-1
aI-1
aI-1
aI-1
aI-1
aI-1
aI-1
aI-1
aI-1
aI-1
aI-1
aI-1
aI-1
aI-1
aI-1
aI-1
aI-1
aI-1
aI-1
aI-1
aI-1
aI-1
aI-1
aI-1
aI-1
aI-1
aI-1
aI-1
aI-1
aI-1
aI-1
aI-1
aI-1
aI-1
aI-1
aI-1
aI-1
aI-1
aI-1
aF-0.8
aI-1
aI-1
aI-1
aI-1
aI-1
aI-1
aI-1
aI-1
aI-1
aI-1
aI-1
aI-1
aI-1
aI-1
aI-1
aI-1
aI-1
aI-1
aI-1
aI-1
aI-1
aI-1
aI-1
aF-0.6
aI-1
aI-1
aI-1
aI-1
aI-1
aI-1
aI-1
aI-1
aI-1
aI-1
aI-1
aI-1
aI-1
aI-1
aI-1
aI-1
aI-1
aI-1
aI-1
aI-1
aI-1
aI-1
aI-1
aI-1
aI-1
aI-1
aI-1
aI-1
aI-1
aI-1
aI-1
aI-1
aI-1
aI-1
aI-1
aI-1
aI-1
aI-1
aI-1
aI-1
aI-1
aI-1
aI-1
aI-1
aI-1
aI-1
aI-1
aI-1
aI-1
aI-1
aI-1
aI-1
aI-1
aI-1
aI-1
aI-1
aI-1
aI-1
aI-1
aI-1
aI-1
aI-1
aF-0.9
aI-1
aI-1
aI-1
aI-1
aI-1
aI-1
aI-1
aI-1
aI-1
aI-1
aI-1
aI-1
aI-1
aI-1
aI-1
aI-1
aI-1
aI-1
aI-1
aI-1
aI-1
aI-1
aI-1
aI-1
aI-1
aI-1
aI-1
aI-1
aI-1
aI-1
aI-1
aI-1
aI-1
aI-1
aI-1
aI-1
aI-1
aI-1
aI-1
aI-1
aI-1
aI-1
aI-1
aI-1
aI-1
aI-1
aF-0.9
aI-1
aI-1
aI-1
aI-1
aI-1
aI-1
aI-1
aI-1
aI-1
aI-1
aI-1
aI-1
aI-1
aI-1
aI-1
aI-1
aI-1
aI-1
aI-1
aI-1
aI-1
aI-1
aI-1
aF-0.9
aI-1
aI-1
aI-1
aI-1
aI-1
aI-1
aI-1
aI-1
aI-1
aI-1
aI-1
aI-1
aF-0.10000000000000009
aI-1
aI-1
aI-1
aI-1
aI-1
aI-1
aI-1
aI-1
aI-1
aI-1
aI-1
aI-1
aF-0.9
aI-1
aI-1
aI-1
aI-1
aI-1
aI-1
aI-1
aI-1
aI-1
aI-1
aI-1
aI-1
aI-1
aI-1
aI-1
aI-1
aI-1
aI-1
aI-1
aI-1
aI-1
aI-1
aI-1
aI-1
aI-1
aI-1
aI-1
aI-1
aI-1
aI-1
aI-1
aI-1
aI-1
aI-1
aI-1
aF-0.8
aF-0.9
aI-1
aI-1
aF-0.7
aI-1
aI-1
aI-1
aI-1
aI-1
aI-1
aI-1
aI-1
aI-1
aI-1
aI-1
aI-1
aI-1
aI-1
aF-0.5
aI-1
aI-1
aI-1
aI-1
aI-1
aI-1
aF-0.9
aF-0.8
aI-1
aF-0.9
aI-1
aI-1
aF-0.9
aI-1
aI-1
aF0.09999999999999987
aF-0.9
aI-1
aI-1
aI-1
aI-1
aI-1
aI-1
aF-0.8
aI-1
aI-1
aI-1
aF-0.9
aI-1
aF-0.20000000000000007
aI-1
aF-0.8
aI-1
aF-0.6
aF-0.5
aI-1
aI-1
aI-1
aI-1
aI-1
aI-1
aF-0.7
aI-1
aI-1
aF-0.9
aI-1
aI-1
aI-1
aI-1
aI-1
aI-1
aI-1
aI-1
aI-1
aF-0.7
aI-1
aI-1
aF-0.9
aF-0.4
aI-1
aI-1
aI-1
aI-1
aF-0.8
aI-1
aI-1
aI-1
aI-1
aI-1
aI-1
aF-0.7
aI-1
aI-1
aI-1
aI-1
aI-1
aI-1
aI-1
aF-0.9
aI-1
aI-1
aI-1
aI-1
aI-1
aI-1
aI-1
aI-1
aI-1
aF-0.7
aF-0.8
aI-1
aI-1
aF-0.9
aI-1
aI-1
aF0.19999999999999996
aF-0.10000000000000009
aI-1
aF-0.9
aI-1
aI-1
aI-1
aF-0.9
aI-1
aI-1
aI-1
aI-1
aF-0.7
aF-0.30000000000000004
aI-1
aF-0.10000000000000009
aI-1
aI-1
aI-1
aI-1
aI-1
aF-0.30000000000000004
aI-1
aI-1
aI-1
aI-1
aI-1
aI-1
aI-1
aI-1
aI-1
aI-1
aF-0.5
aF-0.4
aI-1
aI-1
aI-1
aI-1
aI-1
aI-1
aI-1
aI-1
aI-1
aI-1
aI-1
aI-1
aF-0.9
aI-1
aI-1
aI-1
aI-1
aI-1
aI-1
aI-1
aI-1
aI-1
aI-1
aI-1
aI-1
aF-0.6
aF-0.8
aI-1
aI-1
aI-1
aF1.0999999999999996
aI-1
aI-1
aI-1
aF-0.5
aF-0.6
aI-1
aI-1
aI-1
aI-1
aI-1
aF-0.5
aI-1
aI-1
aI-1
aI-1
aI-1
aI-1
aI-1
aF-0.6
aI-1
aF0.5999999999999999
aI-1
aI-1
aF-0.6
aF-0.5
aI-1
aI-1
aI-1
aI-1
aI-1
aF-0.9
aI-1
aI-1
aF-0.8
aI-1
aF-0.4
aI-1
aI-1
aI-1
aI-1
aF-0.5
aI-1
aI-1
aF-0.7
aI-1
aF-0.9
aI-1
aI-1
aI-1
aI-1
aI-1
aI-1
aI-1
aI-1
aI-1
aI-1
aI-1
aI-1
aI-1
aI-1
aI-1
aF-0.4
aI-1
aI-1
aI-1
aI-1
aF-0.9
aI-1
aI-1
aF-0.5
aI-1
aF-0.6
aI-1
aI-1
aI-1
aI-1
aI-1
aI-1
aI-1
aI-1
aI-1
aI-1
aF-0.9
aF-0.30000000000000004
aI-1
aF-1.1102230246251565e-16
aI-1
aI-1
aI-1
aF-0.6
aI-1
aI-1
aI-1
aF-0.30000000000000004
aI-1
aF-0.9
aI-1
aI-1
aI-1
aI-1
aI-1
aI-1
aI-1
aI-1
aF-0.6
aI-1
aI-1
aI-1
aI-1
aI-1
aI-1
aI-1
aF0.09999999999999987
aI-1
aI-1
aI-1
aF-0.30000000000000004
aI-1
aI-1
aF-0.5
aI-1
aI-1
aF-0.9
aF0.09999999999999987
aI-1
aI-1
aF-0.20000000000000007
aI-1
aI-1
aI-1
aF-0.5
aI-1
aI-1
aI-1
aF-0.9
aI-1
aF-0.5
aI-1
aI-1
aI-1
aI-1
aF-0.30000000000000004
aF-0.6
aI-1
aI-1
aI-1
aI-1
aI-1
aF-0.4
aI-1
aI-1
aI-1
aI-1
aI-1
aI-1
aF-0.7
aI-1
aI-1
aI-1
aI-1
aI-1
aF-0.7
aF-0.9
aI-1
aI-1
aF-0.6
aI-1
aI-1
aI-1
aI-1
aI-1
aI-1
aF-0.7
aI-1
aF-0.4
aI-1
aI-1
aI-1
aI-1
aI-1
aI-1
aF0.6999999999999997
aF-0.8
aI-1
aI-1
aI-1
aI-1
aI-1
aF-0.10000000000000009
aI-1
aF-0.8
aF-0.9
aI-1
aF-0.7
aI-1
aI-1
aI-1
aI-1
aI-1
aI-1
aI-1
aI-1
aI-1
aI-1
aI-1
aF-0.8
aF1.7000000000000006
aI-1
aI-1
aF-0.9
aI-1
aI-1
aI-1
aI-1
aI-1
aI-1
aI-1
aI-1
aF-0.7
aI-1
aI-1
aI-1
aI-1
aF-0.4
aI-1
aI-1
aI-1
aI-1
aI-1
aF0.2999999999999998
aF-0.8
aF-0.7
aI-1
aI-1
aF-0.9
aF-0.4
aI-1
aI-1
aI-1
aI-1
aF-0.7
aI-1
aI-1
aF-0.9
aF-0.5
aI-1
aF-0.6
aF-0.9
aF-0.7
aI-1
aI-1
aI-1
aF-0.4
aI-1
aF-0.10000000000000009
aI-1
aI-1
aI-1
aI-1
aI-1
aF0.5999999999999999
aF-0.7
aI-1
aI-1
aI-1
aI-1
aI-1
aF-0.4
aI-1
aI-1
aF-0.8
aF-0.6
aF-0.4
aF-0.9
aF-0.6
aF-0.20000000000000007
aI-1
aI-1
aI-1
aF-0.5
aF-0.5
aF-0.6
aI-1
aF-0.20000000000000007
aF-0.7
aI-1
aI-1
aF-0.6
aI-1
aF-0.9
aF-0.9
aF-0.6
aI-1
aF-0.9
aI-1
aI-1
aI-1
aF-0.7
aF-0.4
aI-1
aF-1.1102230246251565e-16
aI-1
aI-1
aI-1
aI-1
aF-0.9
aF0.19999999999999996
aI-1
aF-0.8
aI-1
aI-1
aI-1
aF-0.7
aI-1
aI-1
aI-1
aI-1
aI-1
aI-1
aI-1
aI-1
aI-1
aI-1
aI-1
aI-1
aF-0.6
aI-1
aI-1
aI-1
aI-1
aF-1.1102230246251565e-16
aI-1
aF-0.5
aF-0.7
aI-1
aI-1
aI-1
aI-1
aI-1
aI-1
aI-1
aF-0.7
aI-1
aI-1
aI-1
aI-1
aI-1
aF-0.10000000000000009
aF1.4
aF-0.7
aI-1
aF-0.9
aF-0.8
aF0.09999999999999987
aF-0.20000000000000007
aI-1
aF0.6999999999999997
aF-0.4
aI-1
aI-1
aF0.5999999999999999
aI-1
aI-1
aI-1
aF-0.5
aF-0.9
aI-1
aF-0.6
aF-0.5
aI-1
aF-0.30000000000000004
aI-1
aI-1
aI-1
aF-0.7
aI-1
aI-1
aI-1
aI-1
aI-1
aI-1
aI-1
aI-1
aI-1
aI-1
aI-1
aI-1
aI-1
aF0.9999999999999998
aI-1
aF0.2999999999999998
aI-1
aI-1
aI-1
aF-0.7
aI-1
aF-0.5
aF-0.9
aF0.19999999999999996
aI-1
aI-1
aI-1
aI-1
aF-0.4
aF-0.6
aI-1
aI-1
aI-1
aI-1
aI-1
aI-1
aF-0.7
aI-1
aF-0.8
aF-0.20000000000000007
aI-1
aI-1
aI-1
aI-1
aI-1
aI-1
aF-0.7
aF-0.7
aI-1
aI-1
aF-0.7
aI-1
aF-0.7
aI-1
aF-0.7
aI-1
aI-1
aI-1
aI-1
aF0.7999999999999998
aF-0.6
aF-0.10000000000000009
aF-0.6
aI-1
aF-0.20000000000000007
aI-1
aI-1
aF-0.10000000000000009
aF-0.6
aI-1
aI-1
aF-0.8
aI-1
aI-1
aI-1
aF-0.7
aF-0.5
aI-1
aI-1
aI-1
aI-1
aI-1
aF-0.6
aI-1
aI-1
aI-1
aF0.09999999999999987
aF0.09999999999999987
aI-1
aI-1
aI-1
aF-0.30000000000000004
aI-1
aI-1
aF-0.4
aI-1
aI-1
aF0.7999999999999998
aF-0.10000000000000009
aI-1
aI-1
aF-0.9
aF0.7999999999999998
aI-1
aI-1
aI-1
aI-1
aI-1
aI-1
aI-1
aF0.09999999999999987
aF0.3999999999999999
aI-1
aI-1
aI-1
aI-1
aI-1
aI-1
aF-0.10000000000000009
aI-1
aI-1
aI-1
aF-0.6
aI-1
aI-1
aF0.5999999999999999
aI-1
aI-1
aF-0.5
aI-1
aI-1
aI-1
aF-1.1102230246251565e-16
aI-1
aI-1
aF-0.30000000000000004
aI-1
aF-0.4
aF0.19999999999999996
aI-1
aI-1
aI-1
aI-1
aF-0.5
aF-0.20000000000000007
aI-1
aF-0.6
aI-1
aF1.1999999999999997
aI-1
aI-1
aI-1
aI-1
aI-1
aI-1
aF-0.9
aI-1
aI-1
aI-1
aI-1
aI-1
aI-1
aI-1
aI-1
aI-1
aI-1
aI-1
aI-1
aI-1
aI-1
aF-0.9
aF-0.6
aF0.9999999999999998
aF-0.30000000000000004
aF0.5999999999999999
aF0.19999999999999996
aI-1
aI-1
aI-1
aF0.19999999999999996
aI-1
aF-0.4
aF-0.30000000000000004
aF-0.5
aF0.7999999999999998
aF-0.8
aI-1
aI-1
aI-1
aF-0.10000000000000009
aI-1
aI-1
aI-1
aI-1
aF0.7999999999999998
aI-1
aF0.8999999999999997
aF-0.9
aF-0.7
aF-0.5
aF-0.9
aI-1
aI-1
aI-1
aI-1
aF-0.20000000000000007
aF-0.6
aI-1
aI-1
aF-0.30000000000000004
aF-0.10000000000000009
aI-1
aI-1
aF0.7999999999999998
aF0.3999999999999999
aI-1
aF-1.1102230246251565e-16
aI-1
aI-1
aI-1
aI-1
aF-0.4
aI-1
aF-0.30000000000000004
aF-0.4
aI-1
aI-1
aF-0.6
aF-0.9
aI-1
aI-1
aF-0.10000000000000009
aI-1
aI-1
aF-1.1102230246251565e-16
aI-1
aF1.4
aI-1
aI-1
aI-1
aF-0.6
aI-1
aI-1
aF0.7999999999999998
aI-1
aI-1
aI-1
aI-1
aI-1
aF-0.5
aF0.3999999999999999
aI-1
aI-1
aF0.09999999999999987
aF-0.30000000000000004
aI-1
aI-1
aI-1
aF1.5
aI-1
aI-1
aI-1
aI-1
aI-1
aF-0.10000000000000009
aI-1
aF0.9999999999999998
aI-1
aI-1
aF-0.9
aI-1
aF-0.30000000000000004
aF-0.8
aF0.09999999999999987
aF-0.8
aF1.1999999999999997
aF-0.30000000000000004
aF-0.10000000000000009
aI-1
aI-1
aI-1
aI-1
aF-0.8
aI-1
aF1.2999999999999998
aI-1
aI-1
aI-1
aF-0.30000000000000004
aF0.09999999999999987
aI-1
aF-0.8
aF-1.1102230246251565e-16
aI-1
aI-1
aF0.19999999999999996
aF-0.10000000000000009
aI-1
aF-0.9
aF-0.8
aI-1
aI-1
aF-0.8
aI-1
aF0.3999999999999999
aI-1
aI-1
aI-1
aF-0.4
aI-1
aI-1
aI-1
aI-1
aF-0.9
aI-1
aI-1
aF-0.30000000000000004
aI-1
aI-1
aF-0.4
aF-0.4
aI-1
aI-1
aF-0.7
aF0.19999999999999996
aF-0.5
aF0.19999999999999996
aI-1
aF0.2999999999999998
aF-0.30000000000000004
aF-0.9
aF-0.8
aF-0.4
aI-1
aF-0.30000000000000004
aI-1
aF-0.8
aI-1
aI-1
aF0.5999999999999999
aI-1
aI-1
aF0.7999999999999998
aI-1
aF-0.20000000000000007
aI-1
aI-1
aI-1
aF0.9999999999999998
aF-0.9
aF1.1999999999999997
aF-0.8
aI-1
aF-0.8
aF-0.10000000000000009
aI-1
aI-1
aI-1
aI-1
aI-1
aF-0.4
aI-1
aI-1
aI-1
aI-1
aF-0.9
aF-0.7
aI-1
aI-1
aI-1
aF0.7999999999999998
aI-1
aI-1
aF-0.8
aI-1
aF-1.1102230246251565e-16
aF-0.9
aI-1
aI-1
aF0.2999999999999998
aI-1
aI-1
aI-1
aI-1
aI-1
aI-1
aI-1
a.