(lp0
F-1.4184506157199905e-05
aF0.11508406860127263
aF0.016144847778847726
aF0.1477780907576678
aF-9.24910243194077e-06
aF0.1898300249740439
aF0.017728837114473706
aF0.015021903956904836
aF0.09145630337920174
aF-3.20069620451946e-05
aF0.015034136382368946
aF0.07471351447594143
aF-2.9540903248026495e-05
aF-1.0260125024252886e-05
aF0.17682087868858076
aF1.620717010375472e-06
aF-3.1269776806119864e-05
aF-2.806511389730204e-05
aF-2.8894535675227928e-05
aF-2.177307942785589e-05
aF0.29004773977763953
aF0.008472974759376584
aF-2.8417621451115593e-05
aF0.015030473576751024
aF0.017803292375225155
aF0.05424793021961749
aF0.07910125544810365
aF0.037649919095726236
aF-2.8032560521751293e-05
aF0.04089742212255665
aF0.12039614329041592
aF-1.967808280767258e-07
aF0.017111216818337827
aF-2.7025823577275787e-05
aF0.206999813361036
aF0.01571258473442061
aF0.09430632537207906
aF-5.673212471801747e-06
aF0.09599102009947424
aF0.07996546100256507
aF-2.940224671288405e-05
aF0.1264319527318971
aF-2.8361393388465217e-05
aF-2.1706921330633122e-05
aF0.01653570263554327
aF0.008308297781094431
aF-2.8641971206333494e-05
aF-3.412875660924186e-05
aF-2.3304449085159717e-05
aF0.016704050795106173
aF-2.224351602686525e-05
aF0.13142674756565498
aF-2.445202023437787e-05
aF-3.7361548073100437e-06
aF-3.104409154364163e-05
aF0.1194631953312717
aF0.09560733027306911
aF-2.9136908878957257e-05
aF0.0546264818879707
aF0.05283102333200018
aF0.2114576295533106
aF0.28495017489445695
aF0.014901822007764576
aF0.018440997568986983
aF-2.7480822283543205e-05
aF0.08912649009851625
aF0.017482390586092578
aF-1.840481158854601e-05
aF-3.0371057099021215e-05
aF0.0854998545068919
aF0.10724171709526464
aF-9.716027523865023e-06
aF0.12144532442319278
aF0.01430337422182637
aF0.19878293435424554
aF0.03446301148146258
aF0.07948211522903925
aF-2.6662750898687193e-05
aF0.22661913929522592
aF0.1223123583365755
aF0.04118224207233245
aF-2.6683258978366098e-05
aF0.03426828750051403
aF0.04393506712261086
aF-9.12954624476825e-06
aF0.09721540242902416
aF-4.826455735962298e-06
aF-1.5012337541087106e-05
aF-2.6644960945620966e-05
aF0.05797926914926643
aF-2.7554351821557077e-05
aF0.039238658292126694
aF0.03581366792471696
aF-2.3254493251467778e-05
aF-1.0351275547826333e-06
aF0.0169682050176303
aF-2.170973232162865e-05
aF6.703375282413049e-06
aF0.03371681527865533
aF-2.2522879706166066e-05
aF0.054790846775064406
aF0.007246959932035946
aF0.017112668148023147
aF0.012557576788346125
aF0.059926223342294804
aF-2.3511426540334668e-05
aF-1.8272387376949695e-05
aF-3.3308698546008486e-05
aF0.061634321202518993
aF-1.99422448452502e-05
aF0.006544605545195203
aF0.03232167075795589
aF3.978893930600691e-05
aF0.01715809699423554
aF0.04064583194260285
aF0.07633031878850272
aF-2.5405106523823662e-05
aF-3.0184897350071793e-05
aF0.08877632279275849
aF-1.9893238279777847e-05
aF0.01659790073123979
aF0.016709736214399307
aF0.015408875304255165
aF0.01584821571891748
aF0.057726488227011874
aF0.10305681650608456
aF0.1784319714013396
aF-2.5742206654744137e-05
aF-2.794199486233495e-05
aF0.12205517713907366
aF-1.6390961771861612e-05
aF0.0035122621153513833
aF0.07494519255978371
aF0.026527803340166134
aF-9.364871273565e-06
aF0.017208946613474385
aF0.06677883188005307
aF0.01660308829682
aF0.055274429529734714
aF0.1207005974085118
aF0.0554901233226599
aF-2.396065687326754e-05
aF0.019554489869276548
aF9.998356675922082e-06
aF0.014187083140843715
aF0.04205780724889818
aF0.13065791968031704
aF0.01586276929778485
aF8.913850986669303e-06
aF0.015507362567014127
aF8.365710239210955e-06
aF0.038643655614832184
aF-2.9360955499324604e-05
aF0.0948870023371926
aF-3.6070187796610753e-06
aF0.016738844146372056
aF0.21326658030325873
aF1.3759475668617682e-05
aF0.014538349067137357
aF0.010905217747013474
aF-1.7267077883520443e-05
aF0.10106972688474114
aF0.016221949836887184
aF0.014847264504633362
aF0.05483044974655993
aF-2.855539152024633e-05
aF0.016747749680199764
aF0.06883412706293557
aF0.016865364229019075
aF-3.274178080658885e-05
aF0.16993637649981874
aF-1.941391163740036e-05
aF0.04230790135808071
aF-4.794713522215943e-06
aF0.028411295701766814
aF0.09753820912938727
aF0.012198961138762066
aF0.07410868437236173
aF2.962341506140831e-05
aF0.01650993879304119
aF0.03394305266517339
aF0.12064791005531372
aF0.04319186310124179
aF0.1109409520660849
aF-7.308611833067857e-06
aF0.22052098280502008
aF0.056651378743307834
aF-2.74895924299301e-05
aF-1.8887722673444074e-05
aF0.15063162937871644
aF0.02484617259140398
aF0.14637378833559023
aF3.393018916497681e-06
aF0.19252416639172143
aF0.010046602136168925
aF-2.462056543750535e-05
aF-2.503302505107996e-05
aF0.038175306926160335
aF0.09755452668116327
aF-2.2545358149272943e-05
aF0.09425683989519573
aF0.016440935316521355
aF-1.3914266536740882e-05
aF-1.4419816179778167e-05
aF0.18313230397385727
aF-2.548445514172215e-05
aF0.1686218495843752
aF-1.595823299638255e-05
aF0.08124252494080375
aF0.24478045674542503
aF0.21091425686810839
aF-2.0662652071123944e-05
aF-3.338537221786453e-05
aF-3.140120963429638e-05
aF0.06966542982399027
aF0.1331783001516862
aF0.2040516423114176
aF0.007213021190709323
aF0.09740856233537487
aF-4.5659191982849734e-08
aF0.014557504441556013
aF2.263360184606711e-05
aF-2.4101547802413137e-05
aF0.00391567776926216
aF-1.277917018960295e-05
aF0.20717442520984974
aF0.0938953017534887
aF0.09719900233058176
aF0.09417106004863918
aF0.0941899650956386
aF0.0970887374004592
aF0.1515208280339153
aF0.09651336686351808
aF0.01389090034260132
aF0.06462281200079545
aF0.09796473999973809
aF-1.2257136797977353e-05
aF0.05499265209835036
aF0.07344084745789736
aF0.014670035673594928
aF-7.82327373993752e-07
aF-7.380751698260468e-06
aF-1.2175152133586664e-05
aF0.26367514578827134
aF-1.8921399897564584e-05
aF-2.6348321081837156e-05
aF-2.8213589636116865e-05
aF-3.175085790418919e-05
aF0.05467662472210533
aF0.055310511585829225
aF0.055638262519354775
aF0.09714514627465753
aF-8.359651106903954e-06
aF0.043309779852368724
aF0.1269585241371578
aF0.01692997896023396
aF0.05990690246569219
aF0.03888682081191286
aF0.05537571167663202
aF0.07321006378282613
aF-7.641176104744574e-06
aF0.05502497041146137
aF0.09636024650019692
aF-1.5994488379522664e-05
aF0.05561380361916601
aF0.01685289561805403
aF0.1560115929432806
aF-1.7540301871399322e-05
aF-3.0995620245111155e-05
aF0.1229636786778614
aF-7.969065670465625e-06
aF0.09599361887345559
aF0.013041467388624994
aF0.21955612794147283
aF-9.378296796036523e-06
aF-2.1189492775963714e-05
aF0.079976351315584
aF0.11008293579410999
aF0.015591573063927555
aF0.07723555452620268
aF-1.889075828076514e-05
aF0.2564347765320214
aF0.14284062577090229
aF-2.7446409052611642e-05
aF0.0551717718985647
aF-1.5392491350851856e-05
aF0.1682685867319882
aF0.11022609435319453
aF0.058560592012388835
aF0.1423033498172046
aF-3.878976269522383e-06
aF0.1481703720523675
aF7.56160950521334e-06
aF0.19267231565916143
aF0.015345075840020872
aF0.05360006437092668
aF2.6379475656312934e-05
aF0.09084937864824916
aF0.1598905234757475
aF2.1107924095264963e-05
aF0.08135837433865545
aF0.054847491103394486
aF-2.7931976368300582e-05
aF0.13277328552146095
aF0.2655182517016703
aF0.006116191315490571
aF0.40597116933862143
aF0.03656050721235449
aF0.08727116537770385
aF0.03812830742929396
aF0.04149733474731976
aF0.01035753098184422
aF0.0005909388288296569
aF0.0977314730948513
aF-2.7371503063644553e-05
aF-3.8813153624417396e-07
aF0.03813348102207925
aF0.16743544693576506
aF0.28589522225640573
aF-2.2000437971847475e-05
aF0.07239890431575624
aF0.05340402407235434
aF0.17789882864092954
aF0.19108528179492845
aF-1.9371863675843315e-05
aF0.041147798657936274
aF0.01238540133837951
aF0.2162997263955786
aF0.015458282802759626
aF0.10484871818988983
aF0.06642733734233142
aF-2.0287540194008358e-05
aF0.09363456627454436
aF0.022793301704376656
aF0.06487359148565641
aF-1.6246793944407756e-05
aF-1.1604104367179957e-05
aF0.06662778576938111
aF0.21872751965119308
aF0.010741746147552966
aF0.09477229580660795
aF-1.7761645131564308e-05
aF0.09748220236798932
aF0.4497802072288115
aF0.07508667395158009
aF0.09357857283227933
aF0.06681589061451954
aF0.04834595992566815
aF-1.858343265759288e-05
aF0.10173095918396724
aF0.17859756543578076
aF0.08041402706423195
aF0.04227458347616242
aF0.08405330597020777
aF-2.7003580351347978e-05
aF0.17215220082513083
aF0.1617368465199709
aF0.014177479440466989
aF0.09433037212370143
aF-2.2591236771951628e-05
aF0.19449672632944637
aF-3.0331128234806215e-05
aF0.04052444903112162
aF0.2203988006353006
aF0.08558785653252121
aF0.2018722049711954
aF-1.2190783652776815e-05
aF0.04070729357156111
aF0.153414228904992
aF-2.9739584999077806e-05
aF0.051056330437265096
aF0.07685502141212286
aF0.25282869975909206
aF0.3150220260326737
aF-2.6411622676469904e-05
aF-3.3464056802046116e-05
aF0.042604473976755486
aF-3.014718563409957e-05
aF-2.1981470161414052e-05
aF0.01621160557326462
aF0.2461415218537173
aF0.07493685472817102
aF0.18434852936744006
aF0.016614090223199263
aF-1.2957549779368804e-05
aF-1.4425087823788374e-05
aF0.07055065724088738
aF0.19781697605984672
aF-2.9789136322122545e-05
aF0.19082044549181942
aF0.26493032333758215
aF0.07566482990315748
aF0.21775809411001523
aF5.121572062094515e-05
aF0.13646591098680272
aF0.1746072634925122
aF0.07967194128643307
aF-2.4121108077146403e-05
aF-1.40246485322848e-05
aF-1.2576180715484497e-05
aF0.16687810733357056
aF2.960413976182963e-06
aF0.1172132347855337
aF-1.1299390646701823e-05
aF-2.142900928658875e-05
aF0.05181321758201696
aF0.015482855250230187
aF0.04143926902242567
aF0.2068986288025827
aF0.041179360650525965
aF0.09562520903784266
aF0.13331591857190084
aF0.11628284299039526
aF0.07763122340601525
aF0.07534134552458971
aF-2.729765978326526e-05
aF0.016907729565907914
aF-8.268473731476433e-06
aF-3.134459354647845e-05
aF-2.8829272728181365e-05
aF0.11089457251293977
aF0.32134870033138174
aF0.05515096150743659
aF0.015785906704361974
aF0.11354690192374894
aF0.054573551771240236
aF0.13441403072873692
aF0.01529065882160685
aF0.12723265210443957
aF0.11576698338205027
aF0.09209599585741479
aF0.015337343264828718
aF0.04057863557912178
aF0.12372081260760925
aF0.06652675507195971
aF0.11836336104433354
aF0.20151196651349768
aF0.10370855543293356
aF-2.8239429156418083e-05
aF0.1780368459929198
aF0.04061297020606114
aF0.14738371616807466
aF0.10336976128867903
aF0.030388446848032657
aF0.054101689701818056
aF0.015540389463279514
aF0.0521986203770024
aF0.04173027753220504
aF0.14942699719272534
aF0.26439662671169417
aF-1.9407615005739842e-05
aF0.04429209638599785
aF0.2610131535648237
aF0.1776480010199224
aF0.3094810798741632
aF0.08921992667729706
aF0.04355035901174853
aF0.3993024574364501
aF2.4261564486316445e-06
aF0.05629433570149445
aF0.23728755923822664
aF0.06013484634540678
aF0.0814401200840309
aF-3.498454448358501e-06
aF0.2410806739052913
aF0.04184533791566469
aF-1.1574664802171952e-05
aF0.14800702783280562
aF0.04341939832011654
aF0.08410252074825086
aF0.21549473235934125
aF0.1625609000959014
aF0.04192725659877716
aF0.1346833016110831
aF0.13895119614287887
aF0.04041925495374077
aF0.12220432482646082
aF0.042520766641314545
aF0.19556005314377023
aF0.049280820009647286
aF-5.846415791044279e-06
aF0.2281461074024258
aF0.392338752638862
aF0.080754321713989
aF0.4726759356988506
aF0.04306323746989893
aF0.12571396390736744
aF5.705407921663408e-06
aF-2.002447535387475e-05
aF0.2131226434575897
aF-1.9802813158165122e-06
aF0.040468783441244494
aF0.043359544449233844
aF0.07802278196185464
aF0.15594986745339723
aF0.22179986309295385
aF0.17805433661431014
aF-5.574794356810742e-06
aF0.07623813067518315
aF0.09367292162491925
aF0.04047061046900735
aF-2.461465891112624e-06
aF-2.4146566037774875e-05
aF0.07707890563542552
aF0.21198827217821758
aF0.12483563541269627
aF0.11611252542451611
aF0.13840238378207115
aF0.3269403542547944
aF0.22680252313970906
aF0.034754282869254194
aF0.1832303290261703
aF0.07500936256204582
aF0.18189999534998735
aF-1.2285223098373876e-05
aF0.08573613403990876
aF-7.9276719917587e-06
aF0.2551010853030182
aF0.24695327028120317
aF0.07490912901395896
aF0.09105584973382852
aF0.29234544274489016
aF0.15218360174590062
aF0.07787479336129755
aF0.08083877713180776
aF0.14955895878450276
aF0.11727443284403405
aF0.12297836273165652
aF0.26311360863573885
aF0.24428234620166922
aF0.16235859109802764
aF0.0010384662662379363
aF0.04045893551113755
aF-2.621542138125932e-05
aF0.015741043343465044
aF0.23337662956873828
aF0.1703243026034369
aF0.29507432437635117
aF5.327106790353753e-06
aF0.1167801514762119
aF0.0069546477439792476
aF0.3049060134216446
aF-1.6130945191594748e-05
aF0.15505397987346115
aF0.06585470712974928
aF-2.9320850197134263e-05
aF-2.6882520359983175e-05
aF0.030698272035232232
aF0.09446510649534456
aF0.09253089059747843
aF0.09471714349151572
aF0.15358084912236958
aF0.11880575026883733
aF0.08805229745353227
aF0.016200554635228848
aF0.03283699507644933
aF0.06867722017209621
aF0.07791640720478332
aF0.15331352564342282
aF0.26125610401334276
aF0.03408076394686965
aF0.0791422605917056
aF-6.8147216758518425e-06
aF0.04037129857446109
aF-1.1923991487083896e-05
aF0.27698990785139266
aF0.04051312684231956
aF-3.327515878792653e-05
aF0.00027375315191369154
aF0.23907544186981955
aF0.07772460896725741
aF0.04368453460862254
aF0.07633851917956047
aF0.1157251108552182
aF0.04557723280260051
aF0.25006454643525133
aF0.041366634872437746
aF0.07889093597549834
aF0.11383547813600048
aF0.038605491266572756
aF0.4233897420193111
aF0.2155420690550658
aF0.03837051718964268
aF0.11165585107150466
aF0.16051717693816103
aF0.07494723981694396
aF-2.7365957695479892e-05
aF0.2313943974759045
aF0.15243368061669127
aF0.08334172008075802
aF0.1362514174764753
aF0.17503788279949495
aF-2.500816680450768e-05
aF0.12700895321346684
aF0.17823487448601671
aF0.015214695842064696
aF0.3572415722565685
aF0.29826412133719327
aF0.4369022454475595
aF0.23191458711093604
aF0.05524957904561756
aF-2.4727689105663586e-05
aF0.04043606252365661
aF0.09384898839842215
aF0.11474981532467332
aF-1.892110873269459e-05
aF0.24348377424153522
aF0.09442474995283856
aF0.011528609576663573
aF0.05304636504318205
aF0.08010385530056885
aF-1.5953617391151198e-05
aF-1.736524883932944e-05
aF0.19177057341333725
aF0.09387336673338531
aF0.21305760358082093
aF0.31773213904185305
aF0.04037474178172307
aF0.12735290580153524
aF0.3922384844301958
aF0.043357510010384015
aF-4.113051456311467e-06
aF0.10483253226467149
aF0.19907463612153808
aF0.135628707887415
aF0.11994505342774975
aF-2.0632520949970257e-05
aF0.24964725514326647
aF0.07311077471756056
aF0.13974184538848178
aF0.04021846922694117
aF0.040947452603881995
aF0.37815311830326426
aF9.365924635851286e-07
aF0.040467152358268255
aF0.12421148364819601
aF0.16602948767704717
aF0.057669248987980204
aF0.04426155718052627
aF0.19418793933876266
aF0.39809818776157657
aF0.08272590822325299
aF0.015783809079041866
aF0.05397791760410087
aF0.2355790782942293
aF0.23053948712496997
aF0.08187740092753781
aF0.04478375324805972
aF0.111967596628479
aF0.42546353251965385
aF-1.8723416957744377e-05
aF0.11568018735646346
aF0.3055863268442014
aF0.13409327556056994
aF0.07799192305858949
aF0.13732478400166537
aF0.31986735537400124
aF0.07776792644598052
aF0.04183859880709484
aF0.2541884016417102
aF0.10739356468391881
aF0.29587909808567403
aF0.07835071496675416
aF0.11793966749619678
aF9.025025631270722e-06
aF0.24614377220608352
aF0.11221451834627993
aF0.016761936724637216
aF0.09677752138485873
aF0.042635527206941415
aF0.15110476924420224
aF0.08013506460377418
aF0.09347887644996256
aF0.03859743184011766
aF0.15881634388960775
aF0.003836974916800351
aF0.040465120882241745
aF0.13109324033553493
aF-2.8363572924128277e-05
aF0.16102099498963796
aF0.26242942382598233
aF0.16055646614176267
aF0.015245167910307167
aF0.14578223881722385
aF0.12256625120463926
aF0.0588499524646644
aF-2.666604683376761e-05
aF0.2532932898739064
aF0.03224877495293477
aF0.10247871824596277
aF0.14712247641139786
aF-1.4888070410279397e-05
aF0.14283902537087734
aF0.2887861561480407
aF-2.796806709781663e-06
aF0.1493917154984552
aF0.05520770587758461
aF0.12907372259619443
aF-1.5994995965940006e-05
aF0.08800048330465637
aF0.05358231784113476
aF0.23391720750622502
aF0.029959098505110582
aF0.12811281859388046
aF-7.143353510485895e-06
aF0.014642814970552198
aF0.05305624417400834
aF-3.276314237243838e-05
aF0.11439331151430387
aF0.15540302338252765
aF0.09843924269335069
aF-1.4394461188782515e-05
aF0.1709598357876465
aF0.055222914699303516
aF0.11115618777707725
aF-1.8484074809421713e-05
aF0.09176348967166836
aF0.11936221606637831
aF0.038608437359365144
aF0.010385894326784051
aF0.11021643615675059
aF0.1101182587467382
aF0.1714700937091478
aF-1.650021846755223e-05
aF0.17572332051151873
aF0.052292477486722166
aF0.04759587700444001
aF0.2676163533654212
aF0.016239245767091237
aF0.0459723726236172
aF0.11850239038302846
aF0.11570782039367966
aF0.055165809710823854
aF0.1917955696860032
aF0.07741147946088844
aF0.29276088576373516
aF0.054302107756738494
aF0.09764011625530644
aF0.07644317632435405
aF0.0876678104837505
aF-1.0209596515320385e-05
aF0.14339484475091657
aF0.014926426208108357
aF0.291147381582896
aF-2.6330813581498802e-05
aF0.32378000545840946
aF0.15166544376749602
aF-2.101301013190948e-06
aF-2.433206459917514e-05
aF0.2160775266054995
aF-5.4668120794687525e-06
aF0.28376766957812327
aF-2.2410724677790483e-05
aF0.0435484419921246
aF0.31222167092179554
aF0.0980080360149782
aF0.0401761549786217
aF0.40600759886198157
aF0.203346715283113
aF0.016851773732952324
aF0.1705951425248844
aF0.18003284956575394
aF0.35686458701997825
aF0.2415404777064487
aF0.15253501554211413
aF0.1635391767139085
aF0.22067654297322026
aF-6.005597626757009e-06
aF0.31470874928826786
aF0.07794542228854517
aF0.21755371943511959
aF0.08660606118728253
aF0.01575077848301598
aF0.3142792663360794
aF0.0033136860296361093
aF0.12200128977716496
aF-3.027382297693393e-05
aF0.2642511748510885
aF0.11679757557963821
aF-1.6594790400059622e-05
aF0.0935913915249631
aF0.07842820238358206
aF0.11736224719919353
aF0.11809641913220092
aF-3.16854173210146e-05
aF0.16413840579185335
aF0.11346415153560141
aF-1.6891498347160194e-05
aF0.19330007745702638
aF0.038526494596209826
aF0.06815036323364021
aF0.03884445740844056
aF-2.8345712950184065e-05
aF0.2192433636682054
aF0.1180773882416819
aF-1.5532608480750554e-05
aF0.007267494510416306
aF0.0692935388171585
aF0.0029468095846874043
aF0.33688496863140927
aF0.5327863875056553
aF-1.9478150574236963e-05
aF0.13304597139213836
aF0.20884366017602796
aF0.03895473497601554
aF0.040337740912316455
aF0.3425206098648186
aF-9.6680711703101e-06
aF0.19131994435407362
aF0.04030624490525048
aF0.07796008975638147
aF0.27637435204993377
aF0.14183366135447573
aF0.08511987583177705
aF0.4374669404346698
aF0.20167446214127827
aF0.4446579006218938
aF0.17558450890431354
aF0.365831941414259
aF0.29289836138428127
aF0.20614097348951121
aF0.48304108112789157
aF0.16528729960570843
aF0.26044158279335283
aF0.014836735302899307
aF0.03873109629557847
aF0.20275935543452883
aF0.08827928459303047
aF0.04353211534858126
aF-1.5020000230681063e-05
aF0.29835240547108643
aF0.04128471084215324
aF0.4451742875457678
aF0.40719531958310773
aF0.0888422045682411
aF0.0716963268560038
aF0.11748374709550768
aF-3.106021767917966e-05
aF0.188218588918164
aF0.398600043306077
aF0.46529781536715964
aF0.07631411180264447
aF0.2260636134667524
aF0.04094858057391848
aF-1.4694069696119527e-05
aF0.016365938485124687
aF7.041328144996584e-06
aF0.017009140055178396
aF0.15916098014375324
aF0.1676456040413954
aF0.3042167012073915
aF-2.1073314886432826e-05
aF5.152451532541846e-06
aF0.0030743866907170236
aF-2.6950840348316518e-05
aF0.14364164495959253
aF-1.528786599580556e-05
aF0.16527074131416342
aF0.040263233531326215
aF-1.82099963397242e-05
aF0.0033459415587206998
aF0.25710043137456307
aF8.466687417385543e-06
aF0.04048803364597564
aF0.41354980497921856
aF-2.6493446282138677e-05
aF0.12991694743247262
aF0.13427648808117354
aF-2.338578541660752e-05
aF0.06988384210370002
aF0.22870695113442663
aF0.052356109509419824
aF0.009537593594103111
aF0.024597859373205466
aF-2.2356528895262073e-05
aF0.03899838715403536
aF0.6032121303207134
aF0.039353728006954025
aF0.18685322517728853
aF0.23453561863712524
aF0.0436045713969051
aF0.27007930237861766
aF0.16106258839275123
aF0.07994210721612571
aF0.053054917545889424
aF0.12664062559090272
aF-2.861278070520612e-05
aF0.4363428114133483
aF-1.4607971677627063e-05
aF0.08789445585331057
aF0.04040984201857878
aF0.30578719788552355
aF0.07790064437789379
aF-5.654345097472202e-06
aF0.281495235364015
aF0.06923356728099561
aF-1.4681391056203807e-05
aF0.1439683512816341
aF-1.6165322408667748e-05
aF0.17665845737980135
aF-6.848152073413161e-06
aF2.3888519072645664e-05
aF0.30476024820641623
aF-2.9020591253647865e-05
aF0.03883210763514944
aF0.334518535278153
aF0.196943588538673
aF0.2180979720684486
aF-1.7508412265332396e-05
aF0.3694420885485754
aF0.08523373890060792
aF0.030773402133803085
aF0.03861755235129749
aF0.05698511107871962
aF0.015549006719553393
aF0.044049294204326905
aF0.6382122348517658
aF0.015030880225356924
aF0.2555314579413164
aF0.04394606873968909
aF0.07129525117423041
aF0.07867276974358894
aF0.11526815105444754
aF-4.365884006762855e-06
aF-3.324283445005349e-05
aF0.21761701492045749
aF0.18353155488676487
aF-2.6537104700796732e-05
aF0.0350759077587397
aF0.07834618746645505
aF0.07657108931056378
aF0.16970622437518923
aF0.11555220013641998
aF0.11559624058006879
aF0.3087104606036708
aF0.43539810140466617
aF0.17047942371923064
aF0.0695275812873608
aF0.003712437565966731
aF0.18842131822100994
aF0.08253981673098876
aF0.1157176186805251
aF0.040333760402622154
aF0.3023986147345923
aF0.09054859554477002
aF0.12066655051338548
aF0.37118194054897424
aF0.7441576155741334
aF0.03866385697417707
aF0.1404327073884395
aF0.01474537045737856
aF0.015315582018694318
aF0.0716755595629226
aF0.038862966392749776
aF0.22160697321821043
aF0.19216434765726964
aF-3.120610296347692e-05
aF0.11629799980447197
aF0.040521963734494904
aF0.5192722102006613
aF0.17606950543494548
aF0.29495361325009917
aF0.131259725421788
aF0.26226379074686657
aF0.15522903201545368
aF0.30728557337303064
aF0.07762828610384753
aF0.15504475890281855
aF0.3226476287553637
aF0.0778783616580756
aF0.07797404931386476
aF0.48950365673217355
aF-2.6910563483362182e-05
aF0.18549963786460522
aF0.05899172165336397
aF0.11381249812700878
aF0.1946249867625265
aF-4.3845028470101965e-06
aF0.2675748283757815
aF0.11067874164381797
aF0.07337003755306126
aF0.11919218085960503
aF0.3437160689075158
aF0.04328846059320979
aF0.11604678156886017
aF0.11649578190591026
aF0.2148054420848715
aF0.041813670905388456
aF-2.041129920637985e-05
aF0.1710232895953836
aF0.24044159303600576
aF0.1945748854940943
aF0.04044145285602996
aF0.3497565050451583
aF0.07798121520068912
aF0.04181530376097031
aF0.07455592307139058
aF-1.874688315073314e-05
aF0.13002056699166875
aF0.047455132988953874
aF0.053749166902939294
aF0.09743981927592804
aF0.0149878792245417
aF0.11579466502942459
aF0.1544542672127167
aF0.6905468858988191
aF0.15429230225570123
aF0.2450652710275385
aF0.11414283733226505
aF0.09551991691342865
aF0.11169278482486922
aF-2.3468845552709894e-05
aF-2.6072313139557934e-05
aF0.31123101825440225
aF0.05556796308650114
aF0.1591534571544435
aF0.021113845731028036
aF0.19613663387687108
aF0.3389813691564427
aF0.28997774929474396
aF0.04334542883486625
aF0.07839608370059103
aF0.11469373678859096
aF0.2821552642272098
aF0.3113307171933779
aF0.05190520041354896
aF0.3805014032390188
aF-9.14008652319609e-06
aF0.18502218669412684
aF0.12538768010750667
aF0.15400196599450533
aF-1.7045922308778216e-05
aF0.35746190928171684
aF0.16490581446700103
aF0.26401645120486616
aF0.06650798153809889
aF0.0408083367926233
aF0.559201830132229
aF0.041924107704432334
aF0.093502301264214
aF0.19779288821965935
aF0.010432999005209886
aF-1.595245083185759e-05
aF0.03476384977041391
aF0.19218640396555298
aF0.031244719136689802
aF0.5883638719852691
aF0.37715004198589996
aF0.7426407321148241
aF0.5781603975773297
aF0.27863531382771844
aF0.029500525683559875
aF0.18092683182414104
aF0.07840314507630453
aF0.05449754689766051
aF0.47397812551529617
aF0.031050758308044824
aF0.11707973356641732
aF0.18681362980383698
aF0.08135648620457037
aF0.1499160398632342
aF-1.6531844863720835e-05
aF0.096924028739799
aF0.11478627552620013
aF0.43200457033966444
aF0.25414814895251325
aF0.2319604878583923
aF0.26458522897471237
aF0.45767730186380096
aF0.5411449507482939
aF0.18041399241472922
aF0.11597797908136753
aF0.23494423950422094
aF-1.2380627783858955e-05
aF0.3236306187016553
aF0.08171536399617763
aF0.03851190762133605
aF0.04046416485603466
aF0.30685847037587166
aF0.3547455615937225
aF0.0971141145232699
aF0.35565104947555115
aF0.199515893032586
aF0.23535034172615044
aF0.05172273235936986
aF0.256034095330103
aF0.17154463898558747
aF0.39583429082244637
aF0.07843207530012108
aF0.04319587568898031
aF0.1018159992520773
aF0.16406394642983813
aF0.2787094629154736
aF0.146145453405218
aF0.1923562618841026
aF0.11555236307956696
aF0.04051033844856011
aF8.754791865239753e-06
aF0.09676541712144227
aF0.4118479397656123
aF0.1526073909883099
aF0.04189358530753795
aF0.18479326096853832
aF0.07842032403964216
aF0.5214839014647974
aF0.09335637344813508
aF0.08222905481707699
aF-1.0247943857955022e-05
aF0.4544112326779599
aF0.03851265873271581
aF-2.1642880913219642e-05
aF0.3543624358789512
aF0.015386323321990414
aF0.029634424033176288
aF0.15759181927789223
aF0.04244725578676034
aF0.15437515237987798
aF0.12336092493345152
aF0.11582914661473431
aF0.03864037429245171
aF0.3345903834328472
aF2.2403689559524764e-05
aF0.156773325908373
aF0.08345562614912794
aF0.13446583917037946
aF-2.7985294189569743e-05
aF0.11975227048667714
aF-2.262382700868315e-05
aF0.14429722581715554
aF0.22613463822613555
aF0.18479932890340534
aF0.040426020250591055
aF0.15675531079590055
aF0.045285009721293346
aF0.23123585431203741
aF0.1947013198261609
aF0.16803062235922184
aF0.16058201051478926
aF0.04055624746758291
aF0.5463629272707768
aF-1.8861577975481936e-05
aF-1.0619976827719313e-05
aF0.7142297303613603
aF0.17834487803351573
aF0.6550881590332724
aF0.08671241350972858
aF-5.469654286827108e-06
aF0.04043214271181794
aF0.31770626375493105
aF0.38959680698517474
aF0.1128632167941781
aF0.11876804359452775
aF0.07285635373921417
aF0.3189207268518226
aF0.09365867155079144
aF-3.132734638944257e-05
aF0.12234424088011231
aF-2.5143200910182628e-05
aF0.15194783502848974
aF0.3601609735611202
aF0.37530094074059805
aF0.23591589417070402
aF0.04038214958248876
aF0.04036667043078257
aF0.2817861099010739
aF0.15445319493126952
aF0.053591126841052716
aF0.4642950542765054
aF0.506463076255403
aF0.11731103902041173
aF0.3916752533445518
aF0.07850720272762635
aF0.07453272507081588
aF0.22426595257706783
aF0.33267230946872317
aF0.13094416538418097
aF0.19453945008916174
aF0.36869771783854244
aF0.13455207675251168
aF0.16004566608144977
aF0.13005609208697244
aF-1.5063921877001007e-05
aF0.31967948319233175
aF0.21692040730772133
aF3.782670212570949e-05
aF0.3438080480651715
aF0.14153386392441192
aF1.9108015174573723e-05
aF0.9286889759991914
aF0.2600508657491494
aF0.3840744094175852
aF0.24017373204990555
aF0.23469163916307734
aF0.158686697717763
aF0.33135743986626087
aF0.4590007982681703
aF0.10615108956598585
aF0.31836777161525953
aF0.21499317728654121
aF0.05496571987209142
aF0.22901218309234972
aF0.03849340345746777
aF0.1167810170678103
aF0.07586027425072839
aF0.2633691251734307
aF0.12201247082342626
aF0.04873271670410073
aF0.09335632291653839
aF0.0404777027373
aF0.1175178445963474
aF0.15699081473314358
aF2.3275933576094587e-06
aF0.04088064633781574
aF0.09430772680264665
aF0.08299475507486331
aF0.07911389521653689
aF0.08218771403885361
aF-2.1879047807260577e-05
aF0.017856872897272336
aF0.3144609703695349
aF0.08049746575544114
aF0.930244610617244
aF0.39880042604390153
aF0.5186177601816637
aF0.017967937615250396
aF0.3691213755644389
aF0.08457302824803836
aF0.15640575325387962
aF-2.9194060645387765e-05
aF0.11456354322006534
aF-2.4823306890020547e-05
aF0.21482135415894588
aF0.20366608512342488
aF-2.1519796554958504e-05
aF0.6715612676313962
aF0.1715684632419361
aF0.26231009879178835
aF0.5573893667569245
aF0.5363243981212924
aF0.2615510753751962
aF0.30591801836428
aF0.481585282959891
aF0.5347735703802998
aF-2.195640281899003e-05
aF0.19724359432679384
aF0.6122600299004981
aF-2.070075581928066e-05
aF0.37442113257037546
aF0.5550487102379096
aF-2.318613093921229e-05
aF0.1394149929390358
aF0.1978755817135327
aF0.09813024864298558
aF-1.712837137191059e-05
aF0.14040411251596208
aF0.07965624162552443
aF0.20472017737950843
aF0.03865638782729253
aF0.2583002791732447
aF0.1906693120585201
aF-2.110692673262804e-05
aF-2.9314044454498145e-05
aF0.6185029967159954
aF0.16998624046077104
aF0.3858420594730658
aF0.06693779900165042
aF0.4406303235152049
aF0.3299973466310826
aF0.08450323720465525
aF0.13424045921202232
aF0.197601782836196
aF0.06649152945749348
aF0.06645646508907044
aF0.016983318267967284
aF0.20827785181191238
aF0.4550832502168083
aF0.016470981051030176
aF0.5218511024363863
aF0.15958038325621393
aF0.21961004117060368
aF0.7475677906211353
aF0.13909609129004874
aF0.3180873466652061
aF0.6104105636416208
aF0.13041669402983525
aF0.9148928621336503
aF0.06632134075222806
aF0.6034708604379868
aF0.14028243377733274
aF0.3155412130020925
aF0.7895871231683271
aF0.26281769547282163
aF0.622022939296003
aF0.2712056219257084
aF0.38285248094044766
aF0.19498870584032524
aF0.1969480751486996
aF0.06644983208874589
aF0.25927787632118404
aF0.06470677626463672
aF0.12286450256072667
aF0.3081869292307422
aF0.18278468667682413
aF0.5751880767594062
aF0.08016319290113838
aF0.36404113231081503
aF0.6535855265034654
aF0.3169587782137788
aF0.3174247640926864
aF0.25362139950130436
aF0.17431420927346641
aF-3.109878752338702e-05
aF0.22222380125657581
aF0.7254316194117671
aF0.21208338137348326
aF-2.2881150863351962e-05
aF-1.1249449182404447e-05
aF0.22074750230327478
aF0.22311798513948444
aF0.34987640652893903
aF0.2687532494330749
aF0.3900910949608716
aF-2.7769006164302112e-05
aF0.06641052452555884
aF0.6331246757438578
aF0.7060324180423847
aF0.06614800680599586
aF0.4742790775204293
aF0.06883043180933779
aF0.650322858156636
aF0.10431948233999933
aF-2.2218219094316538e-05
aF0.445837792930424
aF0.01479865993502738
aF0.15607908632716416
aF0.351196239006343
aF0.4744032297513967
aF0.48338879331778584
aF0.3948897241309086
aF0.14611465340806928
aF0.3787503310873088
aF-2.1817264356016608e-05
aF0.14749683216901444
aF0.4862621346980802
aF0.3450953183219432
aF0.37725323518944887
aF0.05452313419463106
aF-2.7497148845867514e-05
aF0.31608153141609074
aF0.42781198679707355
aF0.20564674791768045
aF0.728408293598604
aF-2.405271384953167e-05
aF0.10137429025974809
aF0.4798632504938194
aF0.6165812106504256
aF0.38076851053323946
aF0.8061903215231747
aF0.3229837363284629
aF0.2589647081238242
aF0.6637800909431779
aF0.06692437299525844
aF0.22714997256574954
aF0.13056991267237805
aF0.14017329029565673
aF0.3234969807010484
aF0.2080830683519168
aF0.5340075607891945
aF-1.5426544321961444e-05
aF0.7925336600916442
aF0.06920370302715106
aF0.6099009751179247
aF0.3785077645443313
aF0.20769070007557655
aF0.6241058824074179
aF0.08322112138483018
aF0.36992294465267594
aF0.2034573206375958
aF0.7585252779942113
aF-3.029993531633579e-05
aF-2.6689092065268483e-05
aF0.2120150475882685
aF0.30129755028169036
aF0.19504056935208736
aF0.13116813921382064
aF0.06762082068052822
aF0.5449337081642787
aF0.0647565611933949
aF0.6618028784698673
aF0.34403087502987173
aF0.7775216849594333
aF0.74954736265089
aF0.620560753516739
aF0.3280839002026883
aF0.12128480373838535
aF0.37898824342631343
aF0.805526570954556
aF0.14048803757299932
aF0.6496913394268025
aF0.6754233136583236
aF0.12995305384490585
aF0.6070911198305864
aF0.5843583443923062
aF0.6117631126627581
aF0.6103533453983565
aF0.21303149249116382
aF0.45924585607975565
aF0.19764288831152665
aF0.06479728689618458
aF0.08512578041440166
aF0.1803724655132406
aF0.024665005668669693
aF0.258370000690876
aF0.20636502740749618
aF-2.226053437670572e-05
aF0.25802160570239474
aF0.664892706318803
aF-1.3292678396670254e-05
aF0.3761018835519976
aF0.407909807453001
aF0.1138336276132863
aF0.6299143201068476
aF0.43227415584812645
aF0.02328682075003652
aF0.6523838830843971
aF0.3149163647943247
aF0.13788390763716452
aF0.13313090010284867
aF0.2759587672748238
aF0.6165921902912945
aF0.18582025437669447
aF0.12445823105493403
aF0.01666381945224016
aF0.40977579087202853
aF0.19340416954667683
aF0.06647828397975841
aF0.25876796682179615
aF0.39051202616380953
aF0.5764806193129921
aF0.8023212961710198
aF-2.3602183778059782e-05
aF0.256537248437926
aF0.07424142731732575
aF0.6285438097156133
aF0.21138621980333205
aF0.31842028706289716
aF0.04414566158279154
aF0.6032453219465901
aF0.19538381683417771
aF0.49143084717948904
aF0.7548283456274634
aF0.4345073971081099
aF-1.9170467451257167e-05
aF0.6280049102853735
aF0.5703835337577661
aF0.7882179707198405
aF0.6623404194186002
aF0.194559724183613
aF0.4710765464544182
aF0.7854512047843261
aF0.17040437313763324
aF0.3768050861195409
aF0.31864014673144725
aF0.33555210470333563
aF0.5040311960009833
aF0.06590287738071599
aF0.19680633877196785
aF0.5558055775256721
aF0.393979905307297
aF0.4308650006422936
aF0.26269054064255126
aF0.10164936329589302
aF0.46765083811883157
aF0.25944908007554535
aF0.41045296201404957
aF0.6538547053087229
aF0.08259910266147363
aF0.06746546559526001
aF0.14723196381838743
aF0.4289170746509394
aF-1.090437255424348e-05
aF0.13369103756246536
aF0.22441038714832828
aF0.3610835812427342
aF0.14762273208687926
aF0.16786223577837056
aF0.37476598233880676
aF0.09167978292681678
aF0.37246395425052947
aF0.43101089705963425
aF-3.010526210944775e-05
aF0.8095725235446452
aF0.7055989460635677
aF-2.2020527421062752e-05
aF0.2536930181554564
aF0.6814555413010943
aF0.44716373185868985
aF0.38331796151409403
aF0.3902530030049638
aF0.48293857150349107
aF0.015816374397174204
aF0.7125923305554971
aF0.0661998164782025
aF0.2543683574401494
aF0.21177198729946856
aF0.14624012206285997
aF0.06902279316655857
aF0.35387988274312754
aF0.015770473502788818
aF0.14762965628729052
aF0.09830290468461911
aF-1.4742871793149703e-05
aF0.08143343960143001
aF0.45813021333432324
aF0.19839947626664456
aF0.7369095047415009
aF0.5719882971433665
aF0.4396284714990375
aF0.07941543290382969
aF0.27662313936357297
aF0.1993952886409498
aF0.421383276305046
aF0.45982487079931467
aF0.1682701754451119
aF0.10311935225773716
aF0.30934993762680296
aF0.19439109782763841
aF0.6810496440177105
aF0.5761732150645651
aF-2.2454840388430597e-05
aF0.2783583450672569
aF-6.64494682833805e-06
aF0.6820479533231416
aF0.6556132578790872
aF0.13233405089910466
aF0.20952863247909548
aF0.46108281513271177
aF0.08229149212783904
aF0.6034023191962077
aF0.4445720436312661
aF0.44010029918829874
aF0.3368541804348619
aF0.37283412360692836
aF0.07841540366031552
aF0.4128648979332308
aF0.06482555118277311
aF0.6887171406691306
aF0.34791836515705477
aF0.0948679948955009
aF0.19538932609180604
aF0.34501017030140835
aF0.06660607149809872
aF0.14425675768013857
aF0.19406163189465886
aF0.3764027040238562
aF-2.9352752866973475e-05
aF-2.4779220038961824e-05
aF0.1415412490246073
aF0.26344963825642687
aF0.5669293931969244
aF0.5814137708154106
aF0.20496257065925372
aF0.1636672768916978
aF0.3816431432878402
aF0.12965750222007832
aF0.1326893729538452
aF0.3750677875318389
aF0.13420266867701347
aF0.19372644968233654
aF0.06787185312580934
aF0.6183520711692205
aF0.6741167112955289
aF0.42351624784689035
aF0.601177424761481
aF0.45138872607423197
aF0.016656013966756422
aF0.7419946157982178
aF0.06630284443678214
aF-2.7278330288371677e-05
aF0.25777195881196135
aF0.5504224311026342
aF0.49990382388994226
aF0.5558439161742164
aF0.7706609145957399
aF0.01760156863626605
aF0.48615881527990945
aF0.4536702067296088
aF0.2583979839563946
aF0.01705846831442903
aF0.6791071862235611
aF0.6826007071120763
aF0.06787817904925442
aF0.29110523345376293
aF0.6492949902097038
aF0.3780191688315231
aF0.6602100251491616
aF0.657166662546993
aF0.19436130546605446
aF0.25909683638196723
aF0.5355780533503873
aF0.19889340869543748
aF0.5967449797220401
aF0.31929894139842796
aF0.23215593773310061
aF0.43329580209383467
aF0.20100834659265132
aF0.19802663416120048
aF0.7317272501008825
aF0.6526225549258702
aF0.4534167812697123
aF0.35631346236925365
aF0.744713508288096
aF0.14094310287392275
aF0.13281746577048903
aF0.8516686653256995
aF0.6424281077789264
aF0.02343550934054983
aF0.13172655429938862
aF0.31632583165482586
aF0.014465531440899237
aF0.5769380009184588
aF0.10332825825399317
aF0.3339989515498645
aF0.648911508170043
aF-1.8750737161177256e-05
aF0.3857597874708967
aF0.2835052791490664
aF0.2569630155410878
aF0.06484576232511552
aF0.05455942841579775
aF0.4500700257418422
aF0.14716119974222464
aF0.19832405224484617
aF0.13279661488633998
aF-1.9467905945091957e-06
aF0.5984635087975829
aF0.20849251579826467
aF0.13291437000072648
aF0.46820383562000956
aF0.19672537688727276
aF0.5393199413367471
aF0.16468349002937144
aF0.6183630019167268
aF0.06676518886738858
aF0.6496606061555945
aF0.6289140331948393
aF0.3760535388990891
aF0.0867022046565662
aF0.5438136468552992
aF0.2693186640378493
aF0.26347114297263774
aF0.13159994752324833
aF0.4948716868686631
aF0.5484443963926529
aF0.14000954239493035
aF0.07331986965143367
aF0.22319174400610375
aF0.0420187453533134
aF0.2901482830873219
aF0.6839601577418963
aF0.40292734700134725
aF0.2046702503660791
aF0.25660657398918385
aF0.20521193568552665
aF0.12712608955842475
aF0.6401389810564879
aF-3.2266994839158514e-05
aF0.16906981482558514
aF0.7124843090327784
aF0.6851632508653296
aF0.010762015850762197
aF0.3823112773787938
aF0.6269181198513203
aF0.4537048527897358
aF0.2105059645624987
aF0.4207134942344837
aF0.6502297804845392
aF0.09452058241184247
aF-3.1517879837128504e-05
aF-1.5372346329201036e-06
aF0.6825349909841347
aF-3.2390353613909184e-05
aF0.4505877014792663
aF0.06575600043384267
aF0.19543868925234875
aF-2.645977098447716e-05
aF-2.8904702593646192e-05
aF0.4345243747424563
aF0.7261275269223315
aF0.25367069105525264
aF0.391288400148067
aF0.468924155070086
aF-3.3667845420026765e-05
aF0.5343718348500341
aF0.6814132601376106
aF0.6059370159949617
aF0.16457374082984577
aF0.29011912726928246
aF0.34646063131606875
aF0.2113111584549463
aF0.6645296694068761
aF0.10839470373437265
aF0.08389547183619861
aF0.5258864555351908
aF0.17446085246345744
aF0.0151962772256522
aF0.6927481882845488
aF0.3220399605379214
aF0.5783007624489591
aF0.5685005616096639
aF0.39092663663829663
aF0.01678694646724166
aF0.26639873276044757
aF0.015230503425656128
aF0.31892811330661
aF0.3313905137411446
aF0.1474808574234534
aF2.8219243621840917e-06
aF0.6826669309017035
aF0.24675553760103952
aF0.4732998321761097
aF0.4098307933291365
aF0.22875258946746468
aF0.2601478106835007
aF0.8170252333446575
aF0.06650917828468073
aF0.6181737535521274
aF0.5777904630080615
aF0.4455498635737847
aF0.06692066971336175
aF0.15435208228238695
aF0.29894363500010446
aF0.5950957092942804
aF0.373694159901802
aF0.6822377932354278
aF0.6185274266859699
aF0.5293521119681563
aF0.42994627405148034
aF0.4967135646440206
aF0.6548680765777934
aF0.852976117271425
aF0.1775525605792203
aF0.2034906616953851
aF0.7587173796631617
aF-3.2750595212682754e-05
aF0.3636534149709747
aF0.28171648596771126
aF0.5688555318819848
aF0.6382992193005501
aF0.08592926523193167
aF0.32078240351292475
aF0.10785515945009472
aF0.21034098094832165
aF0.4858754049917482
aF0.21669212838934104
aF0.6898886408820988
aF0.1484531195487171
aF0.298720467543772
aF0.5105865231809243
aF0.6084034831452674
aF0.3284616418247994
aF0.5877867405915653
aF0.6771672271177929
aF-2.5663567964073764e-05
aF-2.880837907293099e-05
aF0.5711354600999896
aF0.5045295656280868
aF0.350042560776628
aF0.6928354473144851
aF0.01735186902531005
aF0.20681953056091107
aF0.20808676074454446
aF0.8571552349682103
aF0.2647949297502863
aF0.13609718800343407
aF0.26014710049564327
aF0.4719909644285454
aF0.684571342623896
aF0.3607115680330715
aF0.3200435332000682
aF0.4660661915665063
aF0.19303968718996023
aF0.3154340158838522
aF0.014900819707080792
aF2.661032305617539e-06
aF-1.4992229458776762e-05
aF-1.9902722042886012e-05
aF0.493289613436644
aF0.3757858064763817
aF0.5307299250616748
aF0.5861228207962998
aF0.43130334437491014
aF0.19622346941197844
aF0.3162256808591528
aF0.07470907376438118
aF0.7235107384877426
aF0.028536652786160577
aF0.4329767866272505
aF0.6484776758313489
aF0.19865256792084018
aF0.1501473678886689
aF-3.433437041833187e-05
aF0.4441258325772459
aF0.25819397489845386
aF0.06746384767484814
aF7.718265296663418e-06
aF0.38594894865743345
aF-2.32342573536215e-05
aF0.18077968972921576
aF0.4221819772229356
aF0.4852297898149005
aF0.4042431998115452
aF0.1317655519560761
aF0.1851084129090781
aF0.4597981292290805
aF0.4879719336033834
aF0.378536096171898
aF0.6314397923835422
aF0.3778926296620404
aF0.25689564077514904
aF0.10860399908538731
aF0.14768093806369187
aF0.32937277850481683
aF0.21366350600334982
aF0.3330830879240132
aF0.05559782950452208
aF0.10534152865234336
aF0.0905895410969908
aF0.19752870279655976
aF0.4452073203697351
aF0.1815826941140659
aF-3.455125028750672e-06
aF0.5496082320406996
aF0.10233704301750057
aF-3.2509479289899446e-05
aF0.6717215892632948
aF0.6538232081021507
aF0.26035854427592797
aF0.41270392169236914
aF-1.4608987306097276e-05
aF0.2984869568565922
aF0.3487199396767684
aF0.693816970568681
aF-2.748132655794322e-05
aF0.3759532169708728
aF0.1989342163182215
aF-1.736785656358819e-05
aF0.48423767086607317
aF0.2837190363860267
aF0.319562804162568
aF0.46835514392040967
aF0.3101225404405592
aF0.027993400884755992
aF0.7096855620237585
aF0.1943618528875315
aF0.49043730293468224
aF0.2637558995198721
aF0.678687328356264
aF0.38704983938683
aF0.7781167655779204
aF0.3726781862950923
aF0.33391823041651847
aF0.28088412114766115
aF0.19857432344123183
aF0.504486796100104
aF0.2942743467481126
aF0.43252803005107987
aF0.5622037710028338
aF0.6137926388588912
aF0.781067503450724
aF-1.9131925579785047e-05
aF0.5032477386099514
aF0.4055962959600681
aF0.2511495096447316
aF0.06648061453619114
aF0.21231373204987758
aF0.0664162876320522
aF0.6491415785836918
aF0.9292945610793035
aF0.19893214945368154
aF0.2734706515498728
aF0.6577628541291403
aF-9.113226902890403e-06
aF0.7237473443847602
aF0.5569072754280442
aF0.06644574560612071
aF0.6693615551336078
aF0.016236087534835963
aF0.3154109797246796
aF0.37898475757120664
aF0.4674649091388292
aF0.1973746928107869
aF0.7887667629905684
aF0.6711591978068796
aF0.058510989633016486
aF-2.3226110980711923e-05
aF0.1312277868827314
aF0.5064237696578906
aF0.13091181319021272
aF0.6497843979383942
aF0.7701937046443028
aF0.30125953333808386
aF0.34475635400683524
aF0.19768048996259457
aF0.20880025040314942
aF0.4852390338937185
aF0.3267366899192554
aF0.6917455608134282
aF0.2789314379808916
aF0.1420821860729924
aF0.043693957968256036
aF0.1292562552699592
aF0.1896745696106854
aF0.26078432246851957
aF0.5358098047876472
aF-2.5794325040795485e-05
aF7.875645290589262e-06
aF0.024702880855054676
aF0.19391705506394175
aF0.5503428177739593
aF0.37590826850333015
aF0.4536385828458922
aF0.4212783193111762
aF0.10224707109051412
aF0.3886443649561646
aF0.484122687637222
aF0.7734723173308673
aF0.3194038142531488
aF0.6456619965965422
aF0.26344366755255866
aF0.2594768099213596
aF0.13132927058598698
aF0.1693819535498733
aF0.4842525550435295
aF-5.701578098982196e-06
aF0.4437263771085007
aF0.14469756634052855
aF0.06774350356173287
aF0.3739852888291746
aF0.39012267359428243
aF0.27206722800389294
aF0.5331443376490994
aF0.2135481905908474
aF0.42798629587943093
aF0.13268703618346978
aF0.00712607022885603
aF0.3250276733048927
aF0.8982277480529519
aF0.448310651700385
aF-9.5511519053737e-06
aF0.4544409776758993
aF0.7165641433662389
aF0.28362440445989767
aF0.14806575367347508
aF1.0603207166361215
aF0.6733011429654585
aF0.17063425750195815
aF0.6067983396786696
aF0.6876498050147495
aF0.6681711951127927
aF0.656082467963774
aF0.7306520268785657
aF0.6770167462489138
aF0.06626344397400041
aF1.1223101626286032
aF0.03567819295773056
aF0.5031903968767262
aF0.6726167478149869
aF0.10189685343449861
aF0.8321324603888707
aF0.2619198144949424
aF0.30896966918468927
aF0.5177378836923672
aF0.568107767570619
aF0.6945368675139041
aF0.456315789951911
aF0.24932269516395467
aF0.6260261729551151
aF0.6285012254664264
aF-1.5146639592344968e-05
aF0.32148669946547237
aF0.3295876187843505
aF0.4031169559577026
aF0.07794019330008783
aF0.5639128264105859
aF0.5804050748509884
aF0.6191959730814913
aF0.3733666407200631
aF0.22607472246094273
aF0.7906576478280778
aF0.7034474014090031
aF0.06607137767198035
aF0.3638091342648666
aF-1.6822269173211168e-06
aF0.9138094215313202
aF0.16815268030924946
aF0.5804023131913651
aF0.524436548924089
aF0.5792232770503487
aF0.39831675900660324
aF0.7592158125873714
aF0.5073501109421854
aF0.6195121952813873
aF0.04116921489341996
aF0.20920757027951398
aF0.5404134129020135
aF0.19919706409240456
aF1.0806300157100703
aF0.4999763262360446
aF0.3179286985781884
aF0.47046387313629046
aF0.6153654852904928
aF-3.0261825522348573e-05
aF0.28440286929564573
aF0.2402623096820835
aF0.7082403044292107
aF0.9475206608532489
aF0.06745878519393145
aF0.06645692840008222
aF0.7419145528729216
aF0.5309643832964923
aF0.2656365293984688
aF0.4574817204481496
aF0.623301589256275
aF0.573664695064628
aF0.6536190658990533
aF0.02767144815793321
aF0.3671971944967729
aF0.19082252684327194
aF0.24036241335813457
aF0.5483812273399096
aF0.0795491616036208
aF0.623728108968884
aF0.7705080997887435
aF-2.5768739367659776e-05
aF0.3041923148643604
aF0.23007190122860743
aF-2.525724279101027e-05
aF0.6579331663339119
aF0.07832222528294164
aF0.2761167261060633
aF0.13285794056449074
aF0.6490401067509923
aF0.12962432784872213
aF8.781312586858547e-06
aF0.358958904419298
aF0.6541989668562858
aF0.10168568398328492
aF0.19055292074697716
aF0.274034153842432
aF-2.6541691543702228e-05
aF0.5431186991545696
aF0.6714038898359229
aF0.5362079222225851
aF0.8512189017524951
aF0.60387056248365
aF0.7900339735129895
aF0.16093160714612287
aF0.7990117493554356
aF0.26861406851633873
aF0.1318514066446581
aF0.4042938353484047
aF0.1477697576756336
aF0.31447185267299904
aF0.5889467249700937
aF0.3687957519798202
aF0.39264082632285824
aF0.75352236959049
aF-2.1893100945913346e-05
aF0.016829870323821883
aF0.6758176766535997
aF0.43085719811093526
aF0.609036080411506
aF0.3721326293548377
aF0.646954674211623
aF0.06970228870685169
aF0.08432579289124043
aF0.4339441181501855
aF0.6603475770023137
aF0.5788940950516119
aF0.14685723464786138
aF0.6316997351940437
aF0.11112590696764046
aF0.7633650631668147
aF0.679107722929924
aF0.1657156383408127
aF0.38120796504236676
aF0.04251506974575081
aF0.7752585532912062
aF0.25871813012847955
aF0.6191626181632
aF0.06641947787905478
aF0.1330479884179363
aF0.06598501973008952
aF0.6552750198728101
aF0.47790511819169845
aF0.3123478617799762
aF0.19175771773748274
aF0.1709128668924329
aF0.4705739855158435
aF0.367514342576468
aF0.1534048896080562
aF0.022754553747559303
aF0.33724380379605723
aF0.5693126506565438
aF0.0988379487618376
aF0.31945966401885606
aF0.6236549834894811
aF0.49930007564354906
aF0.6555626799498904
aF-2.428580239310918e-05
aF0.1471585199004597
aF0.30508422256577683
aF0.6471612715196136
aF0.6627725288154225
aF0.20817749235959626
aF0.6288735410768846
aF0.7144805583330536
aF0.25566982687168505
aF0.43653513457744353
aF0.6512425474730112
aF0.13276404273213682
aF0.3777680554152911
aF0.5124212269450727
aF0.6787406002498755
aF0.5430041045480829
aF0.11149944650770305
aF0.3990828652709335
aF0.7992570818005
aF0.781071499597918
aF1.0468857483219831
aF0.47238908377857713
aF0.3763109307028918
aF0.6045017245987276
aF0.46587450694111876
aF0.713637747887709
aF0.8414069719775519
aF0.5034692545992683
aF0.6994995111957678
aF0.6466655147776277
aF0.6546478330162082
aF0.6731543124923909
aF0.34433551968169773
aF0.8126873038899309
aF0.25940212716601785
aF0.21044658923235282
aF0.1944614248933778
aF0.38890651983717506
aF0.1035080551397316
aF0.34512145587366705
aF0.6790568062205811
aF0.08609431799679701
aF0.14345170266775886
aF0.19605258137588377
aF0.6557241190619472
aF0.40812854118969755
aF0.5622886133784344
aF0.3379427088600666
aF0.63686193340068
aF0.29734051670740635
aF-2.030786921736194e-05
aF0.15325309943475496
aF0.05444453955118256
aF0.5519789390587477
aF0.28727049246023917
aF0.5777131532667883
aF0.0586054888528631
aF0.6321225703078142
aF0.6467572716216399
aF0.19894858218965128
aF0.658432119562165
aF0.6516511825362143
aF0.34704016878585975
aF0.4111095673721574
aF0.8881630688910529
aF0.01626627103966216
aF-2.1389270037808217e-05
aF0.7420725928694241
aF0.6549556292869272
aF0.6634712151574198
aF0.14673849469602773
aF-3.130501692005794e-05
aF0.06674903871427595
aF1.1100282179998384
aF0.5693960001340552
aF0.715293397402597
aF0.6543556100867516
aF-2.1017175049653503e-05
aF0.015315535383035872
aF0.5305404693663944
aF0.7280005472928641
aF0.11357091677007558
aF0.5649751458638717
aF0.20498453871528088
aF0.8352861251914243
aF0.43412089611338667
aF-5.4800353592732165e-06
aF0.29426503807227
aF1.0094614071163561
aF0.608521986017629
aF0.30319376720276825
aF0.6471620589969467
aF0.7919099776908141
aF-3.226414562673696e-05
aF0.2423071493118032
aF0.20349300135016213
aF0.3986111881350025
aF0.7512983310490191
aF7.820629126520373e-07
aF0.09581021735061812
aF0.5672456013783798
aF0.5849675051443861
aF0.7967996585355164
aF0.9517624287032662
aF0.4522235063030928
aF0.6848045977435167
aF0.3291571974046068
aF0.15413405854834972
aF0.3090658333258882
aF0.31643129579023155
aF0.17919414906622544
aF0.23935259107131257
aF0.7843368348284194
aF0.3823472320731347
aF0.6488136824012383
aF0.3883041508541982
aF0.19907964218656948
aF0.8447492250028481
aF0.8176065724335122
aF1.041126944669255
aF2.4078647743230874e-05
aF0.318142582758576
aF0.5644881770665413
aF0.575698730033257
aF0.18330191265927676
aF0.31794165765134785
aF0.2873108983722421
aF0.13141957880018618
aF0.13121726024874336
aF0.28035208266787004
aF0.446017348849304
aF0.6255896605025386
aF0.6588318838372675
aF0.25907216313255166
aF0.8716079799165022
aF0.8362283858146884
aF0.3909821127086972
aF0.7323432814544191
aF0.6701600557046405
aF0.06604959463160753
aF0.21607412963734474
aF0.06768572094776326
aF0.6732435319810905
aF0.10697168921238287
aF0.25842366743113043
aF0.48875774337428446
aF0.3179691268261635
aF0.06645154571755496
aF0.4129584822749224
aF0.21924001862867648
aF0.6758430720502706
aF0.6482997053081654
aF0.5669078973110291
aF0.6778956095221726
aF0.19574476367251759
aF0.8114874941963874
aF0.6030349259231134
aF0.455039097198342
aF0.368565011763605
aF0.017158138528893474
aF0.546237797034804
aF0.2869708298444027
aF0.7971532065745421
aF0.05573528501522995
aF0.6815843818948011
aF0.31219693182268404
aF0.19106613317803323
aF2.2960005914285375e-06
aF0.429588243922137
aF0.6585990331575995
aF0.6858940831810076
aF0.789951331377416
aF0.7902948910415244
aF0.19387666236976475
aF0.5195177820289376
aF0.7724086782365367
aF0.669644574476596
aF0.24540387475803715
aF0.7164746678744214
aF0.4100220267314856
aF0.7942445469108792
aF0.6079914797740495
aF0.10138667342449992
aF0.5164306827253236
aF0.5217645534508533
aF0.3767386942412667
aF0.20492453086702467
aF0.5288880278132622
aF0.7037084006579355
aF0.6836646698440738
aF0.6539009530198636
aF0.06471095409907468
aF0.8305166771482737
aF0.2642276302498292
aF0.07663193181529948
aF0.07826062776595943
aF0.67833657088585
aF0.4445740282173207
aF0.7211567646368233
aF0.42919229128593495
aF0.780450938106839
aF0.4493915293980266
aF0.03863472908153698
aF0.35962683387490246
aF0.07997947048313758
aF0.38053119560331305
aF0.11563498291431085
aF0.5964642178899102
aF0.7424978848759101
aF0.255667975788747
aF0.28965630115128205
aF0.18287039236702096
aF0.06712620916740519
aF0.42256365101177007
aF0.6792456894893149
aF0.4944934027097845
aF0.5912538553387572
aF0.588727662048393
aF0.7278165618049304
aF0.19561352555637423
aF0.38013266494273124
aF0.31957111741657895
aF0.34854340693429986
aF0.331562325553481
aF0.1334371851520295
aF-3.103862531927959e-05
aF0.843543657088389
aF0.07436100062828466
aF0.3608227318959054
aF0.5267187052936078
aF0.0532031251520082
aF0.7754897241488399
aF0.7938712756881974
aF0.7685668721143126
aF0.09890263385705067
aF0.13167967690766424
aF0.43403512059574023
aF0.6544409662936617
aF0.5855435122783716
aF0.6560754533763622
aF1.042373718858781
aF0.8788663621706223
aF0.31708397412663203
aF0.6709576089455758
aF0.2299209113131475
aF0.6032540164649336
aF0.12856798502340805
aF0.13970608396178008
aF0.13028780407654628
aF0.05442031964065741
aF0.3880998151689887
aF0.7465972628062616
aF0.09134509316814965
aF0.08293191868015937
aF0.7998634659642359
aF0.24718474224747577
aF-1.5751221522641856e-05
aF0.7325606704522318
aF0.9146901864605055
aF-2.690895274071181e-05
aF0.37759337049252206
aF0.648938502000767
aF0.06909765064593287
aF0.5253668227019084
aF0.6417642483747259
aF0.20730370825403543
aF0.6487069004595347
aF0.28106678961945075
aF0.26769725075683803
aF0.1532114421502886
aF0.5217998299714393
aF0.5493983028407334
aF0.752096869693915
aF0.08917170283884346
aF0.6938954060007694
aF0.7698206971882922
aF0.6394411502312756
aF0.17883741462515523
aF0.06497539619231363
aF-6.135032424303688e-06
aF0.7637807122985749
aF0.445510976467971
aF0.22711724631151764
aF0.056880072293403305
aF0.7826505459108111
aF0.478207835932702
aF0.5014741303256507
aF0.4808335364440115
aF0.016538480280127832
aF0.08475741112695001
aF0.31039434579125436
aF0.9288972521389036
aF0.41078969128128184
aF0.5283756495729364
aF0.6834962575123735
aF0.47953067634795676
aF0.655372183698864
aF0.07420899784606094
aF0.17211533223102649
aF0.784731281511803
aF0.20079092821176792
aF0.07589041802221352
aF0.431616133878435
aF0.8682177656465497
aF0.8710322211170043
aF0.13435634937376406
aF0.3733541013364925
aF0.618455801879402
aF0.5395582429694792
aF0.4291415736886721
aF0.0595034794133098
aF0.050611325221230796
aF0.2727987366683018
aF0.22913535246943395
aF0.2263376418791272
aF0.4732326275227656
aF0.18455348983719633
aF0.3294252315838708
aF0.44076781187354674
aF0.15176379531139217
aF0.19190984507137543
aF0.14231528997688248
aF0.39720259566040994
aF0.1327161723186121
aF0.266262583293396
aF0.7355430879242317
aF0.8929507154573906
aF0.13385288686571695
aF0.6391432391687593
aF-2.0831272197430195e-05
aF0.2494903340669694
aF0.3755149623655192
aF0.647614545937663
aF0.015449533192161358
aF0.5442957902930354
aF0.1960188908494107
aF0.5872605634126487
aF0.06620452062587479
aF0.7392660114025431
aF0.7684791142129161
aF0.036506438526012985
aF0.9090473341330276
aF0.2601856756014951
aF0.8395798761109337
aF0.5480136574634065
aF0.8124007592280797
aF0.2619310897798206
aF0.21593958638167
aF0.8481372449532971
aF0.5304699934067068
aF0.7888884083648091
aF0.5852774981390065
aF0.3938974123578771
aF0.5280312269231477
aF0.07700640266319114
aF0.09014764272435816
aF0.5687138842479236
aF0.3817377242062072
aF0.7528469157788753
aF0.11715110549062491
aF0.41682648077320916
aF0.6309726706409338
aF0.12681023773560263
aF0.3554789333631061
aF0.43907568272095565
aF0.26282250322301204
aF-1.5356357744078508e-05
aF0.37710893537558654
aF0.448724109888782
aF0.7044689922824934
aF0.1969137617801633
aF0.6884269720123006
aF0.7055441969909979
aF0.6810355533467076
aF0.133636760954579
aF0.5401688375834892
aF0.4800455350460151
aF0.07339444430498254
aF0.19538104366869824
aF0.2424887672186835
aF0.30646212477587476
aF0.6556845529689519
aF0.038524853853203034
aF0.1205649818860004
aF0.8175948153714048
aF0.6329164720626475
aF0.7611983259282491
aF0.1082664223366705
aF0.7749750673073748
aF0.017400086884634902
aF0.773951519113576
aF0.46620818042605583
aF0.270928376575597
aF0.5499926331667542
aF0.5569905517787412
aF0.4297946570008526
aF0.5137237412463214
aF0.7857369675222134
aF0.5114850534773576
aF-1.929560281688225e-05
aF0.5496811036081852
aF0.3330288889207993
aF-2.0980567871031752e-05
aF0.3237344391182604
aF0.18190806818976313
aF0.6493124095082563
aF0.429495514353194
aF0.1312766973611459
aF0.7395394706138094
aF0.47605241604461845
aF0.3767843335662815
aF0.7045113490509731
aF0.22119871342289432
aF0.888307534870941
aF-2.5167272339921e-05
aF0.681007403100109
aF0.26007433889937115
aF0.7492329370689843
aF-1.4173121823723989e-05
aF0.691325141359262
aF0.691574714278389
aF0.604201803848234
aF-2.717359221415805e-05
aF0.2241822285107391
aF0.41318347750408924
aF0.014397054847155033
aF0.5429447844599045
aF0.3819317754815317
aF0.8298902674453763
aF0.26513850454569
aF0.15197897664105842
aF0.06485358733232438
aF0.785843825154906
aF0.6242403682641546
aF0.39224912191201744
aF0.6163761318141883
aF0.5354787845842703
aF0.47928517725487385
aF0.7860546751421071
aF0.25470311953991454
aF0.13607653692626087
aF0.7516881568474414
aF0.06778838566741374
aF0.7942116820438261
aF0.015572625564371556
aF0.7689689839397338
aF0.805956414712738
aF0.14375615626380123
aF0.06637325781745096
aF0.10792675744117197
aF0.1550364597632674
aF0.7623250746219901
aF0.4756051566408588
aF0.06636492248973536
aF0.18885729948426722
aF0.7906399431277404
aF0.23167106401462023
aF-1.4486782190292757e-05
aF0.055117341606155446
aF0.17038892298729014
aF0.10394143822150603
aF0.305714124094123
aF0.2871609838253626
aF0.5330925481847024
aF0.2546189280536457
aF0.7261859937235631
aF0.3105022202048273
aF0.1526132144014407
aF0.4724529485533835
aF0.34283241636845574
aF0.7147238814716879
aF0.6070667342929812
aF0.15094596505968116
aF0.013995847243238213
aF0.5961136064951593
aF0.7575074136589031
aF0.4772371353424689
aF0.19772190309598958
aF0.19273878046393023
aF0.756879872103672
aF0.6784703274356501
aF0.7383820015496312
aF0.3939320167409268
aF0.1403989774642893
aF0.6883747839513781
aF0.8701832250798791
aF0.054575539620677294
aF0.7801724095169797
aF0.761652968445826
aF0.5752364610837204
aF0.3403531758455878
aF0.7525717480799119
aF0.03557764931490759
aF0.06637224502889616
aF0.7075428306280047
aF0.479687547802389
aF0.8679465444403154
aF0.2694408954566154
aF0.03841076485977091
aF0.6566250155223781
aF0.6737504502835514
aF0.4987157027111433
aF0.2684698162541026
aF0.2592775026957641
aF0.13405099440631707
aF0.5069786789162722
aF0.05560833887980321
aF0.045856724728781995
aF0.7195981176102295
aF0.6981719226401029
aF0.16156068981527394
aF0.7055726291403968
aF0.4307162663203066
aF0.7015497174177976
aF0.4108179220349135
aF0.8249923328055382
aF0.6040340559561117
aF0.418669355322983
aF0.4529768071261131
aF0.3406919796104586
aF0.11394081152721514
aF0.4399738832788809
aF0.4538006662367895
aF0.16692295015689318
aF0.5127278363256744
aF0.5690052776148575
aF-1.2326616871227714e-05
aF0.4374453223217891
aF0.727740035398968
aF0.5556482471298088
aF0.3045894390716666
aF0.032413284925464136
aF-1.4506612420639442e-05
aF0.7929289369988815
aF0.8558451131519176
aF0.29387007779775454
aF-2.0257736803142024e-05
aF0.6457858548003483
aF0.08627590358391934
aF0.9149800943353537
aF0.2054042526375448
aF0.26558100778755067
aF0.03814155349950532
aF0.7432861035237424
aF0.03552964074175424
aF0.6766840203342421
aF0.310252835017665
aF0.19121694866381223
aF0.44295622848006655
aF0.7882968736264631
aF0.7727496495180115
aF0.30467394504518897
aF0.4507724352931106
aF0.4940167297420337
aF0.5816145528426553
aF-3.15452152226392e-05
aF0.6446411942964594
aF0.6994707244458462
aF0.38361744082137283
aF0.5854841163103255
aF0.262565804107842
aF0.6440078351788268
aF0.2799720356678632
aF0.7203251543606353
aF0.15972410536562576
aF-2.571804560114188e-05
aF0.1661389889657432
aF0.3410769826627762
aF0.12403882111497877
aF0.19103990087600176
aF0.26007785518641224
aF0.31084471853708484
aF0.7054378601313047
aF0.7067764678522188
aF0.3049365186309414
aF0.6982305254522934
aF0.13165859432420834
aF0.3931446916901269
aF0.2544016938372433
aF0.18749661124521388
aF0.08370112851707434
aF0.8243250781845388
aF0.07637730839351642
aF0.7116836575882806
aF0.5299393721580712
aF0.5152524752513985
aF0.1171079622506701
aF0.016492949232490783
aF0.14946734271318096
aF0.7106871111165378
aF0.15254697237871273
aF0.10792732307405428
aF0.27513280309501376
aF0.6230822634432616
aF0.1514333791290663
aF0.342081365110563
aF0.7576123267088373
aF0.7631965539180863
aF0.43603033627333243
aF0.104325781738416
aF0.5023129734296168
aF0.6564081953660632
aF0.7775316849296705
aF0.8219239095971895
aF0.4875108434700772
aF0.15327520764858837
aF0.816083934260734
aF0.22582509291433395
aF0.6629991898004022
aF0.11395226574529316
aF0.01560326946889301
aF0.13797809849931308
aF0.39792929326884163
aF-2.6251501180407644e-05
aF0.6983077177038517
aF0.3444208101313593
aF0.7868201326009565
aF0.20402378801530174
aF0.2297086758167617
aF0.4428655717493526
aF0.5874022719116847
aF0.3576318541224146
aF0.34311938406710585
aF1.0007876165298089
aF0.7761998402624277
aF0.04416271719038001
aF0.23153069336619891
aF0.5210477499572126
aF0.7868796894431678
aF0.3242529273508956
aF0.7179934138917816
aF0.8061464930400799
aF0.6578437192735098
aF0.7029378695774104
aF0.22876062206050563
aF0.2887438954119741
aF0.2676495171023512
aF0.706339760114171
aF0.6291030314888424
aF0.44535226858247645
aF0.27034132755248486
aF0.30139294707539577
aF0.6097422290177614
aF0.4329414903052484
aF0.4726394103163325
aF0.18872419330444057
aF0.038448541467100306
aF0.03851124528386096
aF0.696131711777213
aF0.7604208844297311
aF0.19039105136405565
aF0.1521532748306509
aF0.3568721685952836
aF0.03844450590472581
aF0.15220363022475825
aF0.07637622772851049
aF0.19144008676724544
aF0.40477937830102606
aF0.3409294197916086
aF0.5733671454617704
aF0.16329087828775712
aF0.22721502210600475
aF0.26873281557608664
aF0.32707581338701
aF0.2395519186779378
aF0.3021630289335917
aF0.28884358531104715
aF0.34659579049340516
aF0.15055600485055187
aF0.5278707739972157
aF0.6144864403478136
aF0.2707924127003549
aF0.038651235469218115
aF0.6771956624197517
aF0.7041362646981861
aF0.6512412564904393
aF0.23020697155829817
aF0.05467884771599829
aF0.4764039415900152
aF0.055894901555177956
aF0.5184717554161824
aF0.750610483536982
aF0.5242103609630231
aF0.727903218167874
aF0.8024799242940945
aF-3.236799064021412e-05
aF0.5472744264408229
aF0.5494647939341539
aF0.30071658040456484
aF0.06649523994264239
aF0.6642085919497411
aF0.3768077033526551
aF0.20763182701412486
aF0.5808815027320233
aF0.5918646938989709
aF0.47801309735008646
aF0.4739172664299165
aF0.7484481732091472
aF0.18297457082422186
aF0.5516867283766622
aF0.5270757078399724
aF0.8610627526293881
aF0.10784274230021573
aF0.1164401176365697
aF0.1884575486663418
aF0.04791263463608786
aF0.6209943931499544
aF0.7196067955328185
aF0.439525900718472
aF0.26844961882934104
aF0.7754990321687165
aF0.7052210541156727
aF0.445209504316769
aF0.31844929041151415
aF0.377170015754662
aF-1.348848316107265e-05
aF0.7408806227103244
aF0.03824559832593488
aF0.30677631255058024
aF0.15085979273743755
aF0.08130010344069927
aF0.11551077836278756
aF0.12964435522398743
aF0.18942289459120598
aF0.689569701556096
aF0.6328110305288419
aF0.1681983947325758
aF0.5363637878815788
aF0.47751694971854386
aF0.2267335708193725
aF0.34462364304288107
aF0.5880456895767638
aF0.702865112592987
aF0.256366438294624
aF0.19364886103940737
aF0.2541151743341894
aF0.7939704685269846
aF0.5960458268218667
aF0.6093045342466401
aF0.4840709654019304
aF0.4073998103448191
aF0.3629016355731971
aF0.72091983190737
aF0.19078369703554143
aF0.2963762276648927
aF0.4066254549236956
aF0.29995251140721324
aF0.38213304058172204
aF0.6943014300347454
aF0.2274096192021502
aF0.8793938986602483
aF0.0760575835441486
aF0.4753177998271019
aF0.21827654297168841
aF0.3782500823495254
aF0.4041738802276309
aF0.6547106776708742
aF0.6222033401994072
aF0.3316653304862096
aF0.7043248860124813
aF0.4860998848740663
aF0.5616793812012943
aF0.640707448234012
aF0.6753259216361704
aF0.1623675835753775
aF0.4123415971239859
aF0.7000176407914132
aF0.8013204443612993
aF0.1520947605500913
aF0.6826481389007499
aF0.610841167691833
aF0.6991760691823958
aF0.7680609549729804
aF0.3416834274989875
aF0.8976417496246114
aF0.7426775524338405
aF0.45538065705486064
aF0.4503855103300167
aF0.6665355471562662
aF0.770053012140119
aF0.7112204636911699
aF0.11247498525860644
aF0.07645003148901974
aF0.6513205315299864
aF0.825340475804766
aF0.506944006371906
aF0.2649095927014913
aF0.11371469356605557
aF0.41600892955615043
aF0.9101030683089517
aF0.07629799123917858
aF0.11552067922734466
aF0.392706996353267
aF0.2290137424716625
aF0.6292746979513391
aF0.44138217906689814
aF0.7928224817962981
aF0.6396759766963602
aF0.3747379132673516
aF0.04111150369202532
aF0.25114591511092454
aF0.5087453984525641
aF0.06541754934526
aF0.04568437536011416
aF0.31519929428463067
aF0.3450791961583932
aF0.04688418673968053
aF0.30313272595658924
aF0.162572287759434
aF-2.2670278801317778e-05
aF0.5122073330128685
aF0.5314667401758064
aF-3.392315154160386e-05
aF0.5358289851971976
aF0.038625402458154934
aF0.7169476052154176
aF0.23109171729799982
aF0.09148836750344591
aF0.6661628453906325
aF0.15226109746908323
aF0.6999951394261834
aF0.12811708979442304
aF0.30472522122069723
aF0.7293800273458073
aF0.8025415218677479
aF0.6995718036737126
aF0.3414641507672038
aF0.3227559775735922
aF0.8429096685190944
aF0.11549974372209615
aF0.08576610506968896
aF0.19178516304107607
aF0.20969862417535934
aF0.5922284713793551
aF0.43943482888689855
aF0.44396608937585524
aF0.22764658845325947
aF0.39669543241639627
aF0.038131935368628245
aF0.5761749306636852
aF0.5145976124436151
aF0.6788032263764232
aF0.333079717452216
aF0.06656207239162626
aF0.6569988787690844
aF0.7461263968248932
aF0.44563295805127057
aF0.22528770740655757
aF0.18833173929841873
aF0.752180537107479
aF0.44990857329415057
aF0.2420922427171659
aF0.7567885614647989
aF0.11564364706240626
aF0.28150193795912326
aF0.6840347184393316
aF0.15261483805619358
aF0.38459454216857836
aF0.3693401824783842
aF0.19185916233750921
aF0.111483473728057
aF0.6882312803429205
aF0.22945687304083107
aF0.0413411457981514
aF0.5549220140742483
aF0.6748176164272355
aF0.3718371043832094
aF0.18892426113319605
aF0.5476200659051909
aF0.2503655762628414
aF0.23003360535309225
aF0.7678930114265734
aF0.6520443526830659
aF0.7207241646780966
aF0.015509227727954045
aF0.7164957731919257
aF0.3055783643273253
aF0.4157808457864687
aF0.611452883212253
aF0.5792395075979755
aF0.7093614863041151
aF0.4155663662326905
aF0.4769820121694841
aF0.4129790296628588
aF0.7748117327520556
aF0.2257013424439407
aF0.13093281566422554
aF0.8274494209860368
aF0.6009700832987277
aF0.4479574122980323
aF0.4801073653433616
aF0.6583078575627939
aF0.7899181569795997
aF0.5532113079052339
aF0.19582647242746143
aF0.4092673672481357
aF0.5337844015101427
aF0.5574992232939793
aF0.07905018007344378
aF0.7021606137507597
aF-3.224338919327607e-05
aF0.11920256405996321
aF0.3792529978634631
aF0.6810223987120425
aF0.7158743285994369
aF0.28974968652601296
aF0.03620334934021363
aF0.787158073177292
aF0.6896438278402908
aF0.6712506376278053
aF0.8230362023308255
aF0.537992477735183
aF0.040948768420235204
aF0.6557183844424683
aF0.3413349226622908
aF0.6263184281341285
aF0.2649948980384287
aF0.6344613699787702
aF0.11546522062656273
aF0.7028144403310459
aF0.30780811269347996
aF0.16620033872081663
aF0.7047126394201895
aF0.06822943884827692
aF0.4855339608494931
aF0.3050165590283558
aF0.07622471927901442
aF0.30536654808481334
aF0.12304621343225808
aF0.22993312876007233
aF0.5475655378477269
aF0.09097993123365677
aF0.6984508384718833
aF0.35855592323685137
aF0.382101186927855
aF0.8236904482774228
aF0.4616084251890733
aF0.3342561533233601
aF0.6119513245578583
aF0.689501026648784
aF0.7870235786315618
aF0.16871046374369625
aF0.7973731008138816
aF0.4513603142711049
aF0.6983105901522966
aF0.41414984805675736
aF0.6309471831951581
aF0.7688209153681935
aF0.33054685182672294
aF0.7025440032388306
aF0.7582702827462886
aF0.45032610522287886
aF0.151558463283473
aF0.5305281937337543
aF0.01707960095777894
aF0.7848564200778192
aF-2.0083299490991635e-05
aF0.6722034072335661
aF0.5640728966021227
aF0.7911386694654587
aF0.3191365033362965
aF0.26536291481103413
aF0.19029190662595807
aF0.34332955712430735
aF-2.7219906567399477e-05
aF0.48701900627265227
aF0.13236065358875582
aF0.5669219869618023
aF0.6977215409527187
aF0.42192102081612903
aF0.09047191239647567
aF0.3763864451430248
aF0.3393539101547698
aF0.5671858714361742
aF0.11991714488676974
aF0.4059484802481119
aF-2.8270696208920754e-05
aF0.612483651904411
aF0.3046814105023192
aF0.2639097645900934
aF0.4253794709977794
aF0.14367528120780948
aF0.199951393713516
aF0.033395461274853044
aF-2.1115831113860395e-05
aF0.5219913504691438
aF0.6493123551431461
aF0.469902155998954
aF0.13157483284334992
aF0.03842157720876482
aF0.3911044451439687
aF0.43766592697995366
aF0.5625285156512709
aF0.7592422822669969
aF0.6697496114106034
aF0.19737235311149393
aF0.8063698579077685
aF9.212456833385119e-06
aF0.6967248216881599
aF0.7377263530218259
aF0.6450521186796148
aF0.0414513163385144
aF0.6761503974189256
aF0.47810461762258205
aF0.6537305428809002
aF-2.7009254431664687e-05
aF0.2590589553553597
aF0.22816212582572648
aF0.5684339046176583
aF0.6987830247110298
aF0.7523805789839444
aF0.5149392054603812
aF0.3989242311293335
aF0.6376023645877358
aF0.646517926504746
aF0.03869330053646003
aF-2.2925431942155683e-05
aF0.6283639306905031
aF0.6363737306363761
aF0.39399230578562827
aF0.6774027606219457
aF0.3860760785222723
aF0.6413988954262044
aF0.6142967872484104
aF0.57234533583597
aF0.7312390941806441
aF-2.7192665445152642e-05
aF0.7144104844139485
aF0.13445308153322566
aF0.15420128910689934
aF0.07668913300721325
aF0.22949662953526717
aF0.6715354883085207
aF0.6726497437753549
aF0.6652379110979685
aF0.35749316844023893
aF0.48719664391943907
aF0.7177422614831173
aF0.7045263552319225
aF0.2295157646778394
aF0.996259571325603
aF0.6195719574467486
aF0.5205531411392323
aF0.6348845840685433
aF0.421500323615283
aF0.39127261086186893
aF0.07690401873101038
aF0.46718891851578404
aF0.6099988948312616
aF0.6132244955557722
aF0.9665002151538706
aF0.4787252975142593
aF0.6642830341249155
aF0.1164994918741602
aF0.34445721264915985
aF0.40656918974476186
aF0.6843761526533414
aF0.27317582091385084
aF0.2681645931086831
aF0.22896392803677967
aF0.19454445288308175
aF0.8260120493292953
aF0.2704222145542472
aF0.07509465910569135
aF0.44852698186961915
aF0.6365540528765856
aF0.34268744977823173
aF0.18088786766231202
aF0.7566728288715434
aF0.48752068576369423
aF0.3851796998765491
aF0.7025256705025131
aF0.2692449338342948
aF0.6979882487766096
aF0.6730327783873316
aF0.7310389243299311
aF0.9327171238100784
aF0.38111775347231136
aF0.8098107558410232
aF0.6050364250542497
aF0.07693454685188339
aF0.1410357215292497
aF0.014424318850911888
aF0.17732288317120615
aF0.2602338815259886
aF0.4403740099159017
aF0.6232278251136192
aF0.37871297265541326
aF0.33589347008141823
aF0.08247307297593753
aF0.8030994131529825
aF0.395737537472705
aF0.6139232392931713
aF0.5843357232149962
aF0.8110002548569653
aF0.7713728286700974
aF0.8069777918184196
aF0.5649267540623129
aF0.2292838075554915
aF0.8288399969622757
aF0.20823883626182393
aF0.07627735171443195
aF0.11147593517460708
aF0.5140435166771224
aF0.043399702279768526
aF0.19958289360925674
aF0.6035326866251038
aF0.3973158819807332
aF0.30993143161609815
aF0.641542374868052
aF0.6704705379822373
aF0.267234491293149
aF0.07542277480939097
aF0.5815336233585255
aF0.6641524940406116
aF0.6592928380801455
aF0.39763854154785205
aF0.16960680180990417
aF0.5437436388887709
aF0.37808867397509704
aF0.6445651142905731
aF0.5823614828570962
aF0.6147889283395527
aF0.12693274210916305
aF0.1522017170240959
aF0.5655131059910987
aF0.7365680642676944
aF-2.7700121130180833e-05
aF0.7292953902663983
aF0.5039029778192448
aF0.40632875313573935
aF0.2849377467034664
aF-2.391135403057021e-05
aF0.41083511470610823
aF0.6819068504279246
aF0.3046850661039344
aF0.08590285813991771
aF0.09066827841011982
aF0.6693654376421683
aF0.07026450722878552
aF0.19197435002283614
aF0.2666156744654713
aF0.053360948379890694
aF0.14335952269363927
aF0.2278353086146785
aF0.7261301200606751
aF0.7881729540762827
aF0.7716235499581865
aF0.6688180252066247
aF0.7856503395471663
aF0.4415991791706846
aF0.7909758131338109
aF0.22656162329735885
aF0.34297339238154745
aF0.4750797422240818
aF0.17014493580330248
aF0.7677567793878541
aF0.9784072126146541
aF0.684898807231209
aF8.529561438486155e-06
aF0.1351116784243911
aF0.570383513723403
aF0.4514535867523053
aF0.2723599360738289
aF0.05371090468071982
aF0.5710805333466307
aF-1.6681925838035738e-05
aF0.31614061294907225
aF0.19543830942421136
aF0.5692714764693281
aF0.011977005566431664
aF0.5070534151077699
aF0.791974810344676
aF0.0796057214698207
aF0.07626145706445397
aF0.39910436330309906
aF-2.8025232775341635e-05
aF0.15622293001526755
aF0.3298458289088435
aF0.5786335174476531
aF0.5332226383045686
aF0.5321973133538349
aF0.5032379949501822
aF0.2304089176819022
aF0.6289297291425422
aF0.11414612896831544
aF0.2233341309277752
aF0.2648189218768011
aF0.040407856588677404
aF0.2833400084740556
aF0.23359756976113832
aF0.30037216454991045
aF0.7100336279170598
aF0.7856256123919669
aF0.5004439532834666
aF0.7984924538966802
aF0.49926152274648006
aF0.7678286945819872
aF0.7633854327809813
aF0.4700253942388537
aF0.2747836029275499
aF0.19546597091048534
aF0.7292005694079893
aF0.9924262767283851
aF0.8217922064459593
aF0.4743697527501074
aF0.5394018731687256
aF0.7934366099251244
aF0.42968505255139844
aF0.5994642202677865
aF0.2127821586031815
aF0.1784653470745301
aF0.013581870208387414
aF0.21556852802176518
aF0.43832689719498985
aF0.1952233834637176
aF0.3114930983497288
aF0.690626937766432
aF0.7059459055125012
aF0.13284790166773508
aF0.249649696150942
aF0.6698263376611577
aF0.45587222504908587
aF0.3781945593713485
aF0.19089709570147395
aF-3.136019029437165e-05
aF0.23573647699554057
aF0.1967283871222265
aF0.7113265696520323
aF0.24415217863667493
aF0.03860895839546297
aF0.7753301767434917
aF0.7032678165017163
aF0.5051837090031501
aF0.5217670914167196
aF0.1202596010812127
aF0.1941745340852723
aF0.5737478112117587
aF0.24481802879942238
aF0.040434681642486314
aF0.08101964988025401
aF0.11798611945817239
aF0.7829722024625876
aF-3.2373993067214e-05
aF0.1204078242373341
aF0.5222291435950233
aF0.3472235027443551
aF0.23903293468825826
aF0.2942723956752671
aF0.4640294082102403
aF0.01677735340799824
aF0.6933229051906777
aF0.5105343200879084
aF0.31529741366138975
aF0.2934080237049095
aF0.043123180049460696
aF0.7011686676168889
aF0.053937442050925544
aF0.47562435470399356
aF0.5960468412612303
aF0.6846312690907967
aF0.18771666508600626
aF-2.9056390292048206e-05
aF0.23963250306333705
aF1.0763214276166648
aF0.0559901911745424
aF0.7419848743940252
aF0.5112271366585719
aF0.7170959631601534
aF0.4405128758863479
aF0.1478214860284619
aF0.12455473351274948
aF0.2918485814169718
aF0.6704672154641669
aF0.23958690288974704
aF0.8260194784868693
aF0.41758504385397366
aF0.8443818711144129
aF0.5316686428416482
aF0.7803139058553152
aF0.12846103140809362
aF0.24714155521668468
aF0.07633628490515054
aF0.44752115875850684
aF0.04232827508614534
aF0.597059351820965
aF0.7792165391314039
aF0.8190489922090705
aF0.07765232895142571
aF0.19565495951839385
aF0.07762820286939176
aF0.4780024024795231
aF0.17563814885783202
aF0.723928791366383
aF0.16053290322806513
aF0.6848128046062856
aF0.1936976890854072
aF-1.8499842795449695e-05
aF0.23511163411432845
aF0.7299754421731519
aF0.4769231695215854
aF1.1928070809913147
aF0.4339458084123198
aF0.35679567956407476
aF0.2811780874308698
aF0.1705213060087316
aF0.27222624598042655
aF0.3525037887732152
aF0.6689328977304276
aF1.0702414101120197
aF0.8565769584072376
aF0.5851766513445966
aF0.4647100992700919
aF0.5849620850235691
aF0.59892804475236
aF0.6206878904592221
aF0.8619144122638334
aF0.6469175043563067
aF0.8624163333216326
aF0.39038785431286893
aF0.18284779296542197
aF0.14556314653322078
aF1.7810084575510183
aF0.0649764627063214
aF0.16715996531405786
aF0.5775759447601674
aF0.6851228799228339
aF0.7809098113680824
aF-2.99861161385806e-05
aF0.5972818145546865
aF0.5369575384191472
aF-3.0674571563693576e-05
aF0.24455595452508216
aF0.07762890489273877
aF0.5989616826469235
aF0.6541522920950804
aF0.47138323213887734
aF0.5687203228556772
aF0.7603765303314827
aF0.43060962767040367
aF0.35456308585474083
aF0.07503017464518313
aF0.7327180866840259
aF0.6350897585539541
aF0.6667902704776716
aF0.5972329758316608
aF0.26129078817706564
aF0.5812707135018464
aF0.0647676965588917
aF0.43546620631478916
aF0.8494928920966678
aF0.5337906198490732
aF0.2176479706220511
aF0.5987453917547101
aF0.48042889253513854
aF0.7076718234558559
aF0.5041865042139917
aF0.07781159485147215
aF0.5730079717729581
aF0.5693927128057377
aF0.31214732807566303
aF0.7470486121207269
aF0.10512074487284995
aF0.45800091888916183
aF0.7815914171626703
aF0.31586336806836224
aF0.31323089054968767
aF0.3597097484819045
aF0.8835957805898595
aF0.24736935235620106
aF0.2867663027978633
aF0.1621540009567739
aF0.7198990285820424
aF0.17990436406664578
aF0.12162835871644129
aF0.2181546524768021
aF0.25767618548463744
aF0.31025566648472314
aF0.49272213043829716
aF0.28738924158018087
aF0.6996948868897879
aF0.7080370389981749
aF-2.9160176699516427e-05
aF0.502922759551812
aF0.42149569067228265
aF0.040868657574768985
aF0.39497703558709363
aF0.8434600819420268
aF0.49742313174910713
aF-2.751061341577099e-05
aF0.6189993996208316
aF0.9831230153311687
aF0.31999871850978723
aF0.08166375652760083
aF1.0127800110935592
aF0.39796651189504395
aF0.3373227146374904
aF0.6877122923574261
aF0.5258261796998411
aF0.16822366426243995
aF0.04168812693289814
aF0.06653566145087542
aF0.3635391770397174
aF0.1951482450921409
aF0.44264213729911406
aF1.0849913198291654
aF0.46773734435186043
aF0.9528359012166332
aF0.274552414345397
aF0.5652122933191812
aF0.5776733481344993
aF0.19851058135385946
aF0.7290962286074985
aF0.07796315302955348
aF0.38024183069836104
aF0.37899819474078855
aF0.8464568862465485
aF0.6884000054049211
aF0.12481056118073486
aF0.5605459311813861
aF0.8031715614949824
aF0.4293189428346893
aF0.8292366758510266
aF0.7211921230032874
aF0.6777163554372008
aF0.865246922324955
aF0.6511710237669588
aF-3.2007752172713566e-05
aF0.7114764421368927
aF0.32662033445458416
aF0.5472630576845554
aF0.15549735443363666
aF-2.9996595348968924e-05
aF0.5854591573010284
aF0.13253075385450286
aF0.6863329280589454
aF0.4820450633325901
aF0.09786706356127706
aF0.4300204861226753
aF-2.8637698990419125e-05
aF0.6703452332168505
aF0.6695256563765346
aF0.3290596987362884
aF0.6152822576057257
aF0.2805930130780192
aF1.2826674827257887
aF0.9015302641752161
aF0.8055344973317227
aF0.72256304052256
aF0.3281353497278281
aF0.9946107250191276
aF0.25402569717213064
aF1.395626958210641
aF0.5781983424508019
aF0.554571407785859
aF0.6817046740105481
aF0.2319330764427847
aF0.7069678062196494
aF0.3169954104873942
aF0.4832469302644027
aF0.36134880480799625
aF0.03868849462072088
aF0.6475058953281292
aF0.015786605051566482
aF0.7706625311024653
aF0.8552803330627099
aF0.274609716212197
aF0.31525068437955994
aF0.7228989785965299
aF0.5667603641548111
aF0.5197056148742685
aF0.9006328536081334
aF0.6482174593522707
aF1.0109387159070589
aF0.3942249390350341
aF0.375990874533521
aF0.5087818732178784
aF0.5390656505478102
aF0.6723340159364075
aF0.6552690847672644
aF0.5012881412217531
aF0.19103570153812077
aF0.7653694765931434
aF0.7378209209893449
aF0.5845990360995321
aF0.6069498638795179
aF0.3805838354007718
aF0.1335895511148264
aF0.14487460932482232
aF0.2638266541062113
aF0.6652734787575025
aF0.2753097166810674
aF0.07666740347880019
aF0.5737800741870869
aF0.7536689159067032
aF0.7616829728981429
aF0.7439671097981857
aF0.19376173766506577
aF0.3446581228962673
aF0.9154942054960413
aF0.07633566419888016
aF0.3536844872504754
aF0.6568152757937913
aF0.7682732144711708
aF0.1797749540297482
aF0.33782357583181
aF0.043310120540494434
aF0.8446113031321287
aF0.32055296439762726
aF0.35760133552665163
aF0.05336533834394608
aF0.4075843951271234
aF0.6042730310949502
aF0.6496931579120049
aF0.7000875665063067
aF0.23476554462165256
aF0.8199243916385894
aF0.3076421142278867
aF0.1686335358324622
aF0.8668683747291626
aF-3.171824894510067e-05
aF0.1156642168261457
aF0.5166801693047303
aF0.6707681583760507
aF0.041093993306860366
aF0.15189952814174346
aF0.43572075474613214
aF0.1139385082415445
aF0.8625906407461708
aF1.1421144340516296
aF0.12990381312803567
aF0.2770608112959083
aF0.7677960519087894
aF0.8260915798107962
aF0.6395136373329837
aF0.35233809467540755
aF0.7010519972934781
aF0.6099268935282542
aF0.8910656072431586
aF0.6025816010672123
aF0.5450979843459414
aF0.016834720337681297
aF0.2796589080492451
aF0.6964990948451129
aF0.2533729466281307
aF0.8124887854425711
aF0.413946042666006
aF0.10363832315889177
aF0.13270424635912859
aF-2.508217412211522e-05
aF0.27282981106557047
aF0.07626892789482742
aF0.3579260472605168
aF0.7324802438474558
aF0.040334161151847514
aF0.37648365190187416
aF0.19549828430699412
aF0.49401773934540394
aF0.33174030499407703
aF0.2583824679369564
aF0.08627914280495785
aF0.25780747482519395
aF0.2553181473891497
aF0.31607065110911803
aF0.6849667706909823
aF0.0646922960437899
aF0.960892461919201
aF0.01725288051771523
aF0.15993997798719528
aF0.3532488830622822
aF0.6877864261126474
aF0.04046925045852623
aF0.8456848814559907
aF0.7027841379773636
aF0.23458936690838827
aF0.30225519151733504
aF0.8928861839158309
aF0.19497185716262155
aF0.8252671572807713
aF0.10549672419347189
aF0.11676357567228024
aF0.3379011893976296
aF0.5326368448867651
aF0.7850727558938488
aF0.8663238652105725
aF0.23023991352594875
aF1.119530688492354
aF-2.5255975907523265e-05
aF0.6916082187373842
aF0.7475957824408557
aF0.17129428879710895
aF0.48161493550619383
aF0.599679083127743
aF0.11726554873467476
aF0.8044605812000665
aF-2.6921411427682784e-05
aF0.6342608292397616
aF0.1570971643381731
aF0.29984397475046576
aF0.267629014456209
aF0.15457345212376294
aF0.6521349358110458
aF0.8433634337442721
aF0.3395890670794306
aF0.07622455004517725
aF1.2302554241196995
aF0.2318871943782761
aF0.41601497599887516
aF0.20562362925592792
aF0.1911446754854702
aF0.2029609540645425
aF0.516124042983753
aF0.20488743404273357
aF0.7522599441356301
aF0.19462207269217258
aF0.31945453066013263
aF-1.3218138222192977e-05
aF0.3994125598886735
aF1.0674693519326621
aF0.6226743332901967
aF0.8597755218448233
aF0.3750614105286787
aF0.1774273799724182
aF0.5659391173927468
aF0.20487075394980492
aF0.16748122421645295
aF0.1542160913335726
aF0.758344914307457
aF0.4851156024499068
aF0.560691199627767
aF0.30230948123469004
aF0.33657607285120683
aF0.9817996827690441
aF0.2990400460560174
aF-8.692784698283162e-06
aF0.8437752314977107
aF1.0750556887084461
aF0.11648100480458368
aF0.189777560669095
aF0.761214508766606
aF0.3658311535138896
aF0.5454206827552515
aF0.12438295637178287
aF0.48467989622106833
aF0.872496582427579
aF0.9779240646672478
aF0.6130971539921846
aF0.4959589911625728
aF0.5092385391897016
aF0.6588917909224916
aF0.6266407136103616
aF0.23140245115810565
aF0.3136590127474643
aF0.8100734387700785
aF0.3298322706762673
aF0.6759114677003297
aF0.7201308991179665
aF0.3993870378117017
aF0.7041363318737583
aF0.08431852436936405
aF0.3289116939150545
aF0.31841652501534856
aF0.31291911931642824
aF0.10232803749439956
aF0.7680494676278395
aF0.04026894075681042
aF0.16137134970311173
aF0.3339546844846222
aF0.48809654972752536
aF0.557929845330726
aF0.15542487441944264
aF0.7546017202659527
aF0.16856771643764157
aF-2.5450381019531676e-05
aF1.4263697111534879
aF0.15646955440639987
aF0.3583716222342255
aF0.13020291673408035
aF0.6494941758640866
aF0.7365891782463887
aF0.38042066353372395
aF0.574312731918996
aF0.2351205526685476
aF0.7327199258740569
aF0.56820866571063
aF0.10516517131971082
aF0.38575921173731453
aF0.353957650661175
aF0.13129403431471642
aF0.9814735608961564
aF0.7181623148557548
aF-3.8928885373046285e-06
aF0.24098251575042484
aF0.22105287196712586
aF0.6849016300849575
aF0.666523283814803
aF0.5878748325968783
aF0.5018343921973085
aF0.04376991569691979
aF0.48527163275558527
aF0.16414125716342864
aF0.5501285266967946
aF0.7687616533359263
aF0.5085274615721085
aF0.33315419143324654
aF0.22613052204030293
aF-1.479569657503177e-05
aF0.4494869126839305
aF0.016755237112184407
aF0.591210062478599
aF0.44908113521260784
aF0.24402714298483286
aF0.37896759294213833
aF0.06788653163028924
aF0.6377369008044189
aF0.7816543517278292
aF0.5724795456569818
aF0.785324589514099
aF0.7562133362010184
aF0.25901076351360963
aF0.888829470535216
aF0.2343990516666774
aF0.6258120556827804
aF0.48494996254834355
aF0.48952500359558826
aF0.3187154339833178
aF0.3737207686245747
aF0.4678822160826055
aF0.5716651740240968
aF0.26647933384753886
aF1.262568351851865
aF0.6334992373266042
aF0.11609685690396354
aF0.6730232527879272
aF0.6911618725395625
aF0.6746331422742724
aF0.4266151074757656
aF1.054729087336236
aF0.043072479047582934
aF0.015390446385527223
aF0.11416964306632194
aF0.8247936324941882
aF0.040307123050776994
aF0.6324066012406688
aF0.9332870087280298
aF0.5159097961057988
aF0.32025308183549717
aF0.8283464509100629
aF0.679381950616341
aF0.8448023257788093
aF0.28750193277012004
aF0.4204355426181574
aF0.24372628133657326
aF1.383511188095008
aF-2.254052144134988e-05
aF0.49820131972972703
aF0.16892608731377523
aF0.1115051974054233
aF0.43356385026617694
aF1.0045348272165984
aF0.4774254208795461
aF0.2407096755561402
aF0.03821294342202375
aF0.045786402400054715
aF-1.178464457485262e-05
aF0.7483584614964953
aF0.5008985572536107
aF0.06662603764042174
aF0.7132708804882322
aF1.0210358607513594
aF0.066840211832496
aF0.4327734081103469
aF0.10121165423672052
aF0.5292285172921352
aF0.6889604663088105
aF0.6998112750264931
aF-4.460397063255073e-06
aF0.7551236835744182
aF0.7007911000267515
aF0.7502935274022478
aF0.23439366296888586
aF0.076417871616413
aF0.23999267399540036
aF0.43147196603866433
aF0.062358863871262216
aF1.0099473999694326
aF-2.195030202223336e-05
aF0.1632803490056478
aF0.1970024503208032
aF0.13463838634348413
aF0.6010794105142012
aF0.46918246048968326
aF0.24248518954403986
aF0.9407714328640986
aF0.4001881301426491
aF0.4666632250932441
aF0.14176725181155136
aF0.5762760998854457
aF0.6810595468704217
aF0.08627457340760758
aF0.7002304190169228
aF0.29692920358920594
aF1.3197433916522665
aF0.7690951996696596
aF0.5964464191563441
aF0.10360067865701073
aF0.7872586275022733
aF0.42704626724879535
aF0.8970508802581136
aF0.15589768277036198
aF0.46222648488580953
aF0.30398360586591133
aF0.5676941505880388
aF0.44344583051415176
aF0.8052791415037115
aF0.8059899574842615
aF0.5948775007406155
aF0.3272977624834925
aF0.4133156497779793
aF0.9553312917956607
aF0.6523172878424903
aF0.1551892990941317
aF1.1443437215389807
aF0.01034384492047602
aF0.5432360124327325
aF0.700062708972367
aF0.455881716163558
aF0.20160098042972807
aF0.9096874177795877
aF0.5471276300598564
aF0.1814362274156358
aF0.05851969673117008
aF0.27099340316186327
aF1.0037843180183845
aF0.19979269351638118
aF0.24860675939903087
aF0.7382305175867687
aF0.35417186372958565
aF0.19340164587044306
aF0.3297207808330067
aF0.3843833964625514
aF0.43298385698533526
aF0.5931687669733288
aF0.6841136032108408
aF0.079878677326088
aF1.3663365347263494
aF0.19809826481008086
aF0.454031608500459
aF0.6624625244650728
aF0.06665246033315197
aF0.789703480411001
aF0.639150758104774
aF0.0563443248350084
aF0.648130198806244
aF0.6578295651518791
aF0.4296081627241972
aF0.9193397081509342
aF0.23068274790839594
aF0.6208479869682018
aF0.292649751956235
aF0.04332702867519744
aF0.10421768324398606
aF0.9210541441029365
aF0.13857208748136562
aF0.31637970852132025
aF0.504955719689403
aF0.04330952051953707
aF0.6231127153863718
aF0.5081644902852913
aF0.7614472751923356
aF0.0936279202860022
aF1.010487841510578
aF0.18206676597068405
aF0.3884709121267216
aF0.24299445211460569
aF0.4406516208429814
aF-1.1111786459849782e-05
aF0.20305046794967696
aF0.07624540428226556
aF0.5694205928752369
aF0.28109285497653724
aF0.8417485727604168
aF0.5248135876414683
aF0.0917396006616924
aF0.37794778425626196
aF0.7315276995750697
aF0.3870235274412681
aF0.6461606113934955
aF0.47873437196156754
aF0.6872383774887312
a.