(lp0
F0.21760166029116457
aF0.1650654995102725
aF1.0476302105821844e-06
aF-2.885507655125963e-05
aF0.056458656875704616
aF0.053154682460081926
aF-2.577786790514125e-05
aF0.035516768832489554
aF0.043045939783685316
aF5.346443047837823e-06
aF0.08239150863065836
aF-2.447053011955802e-05
aF0.1847917723638921
aF-1.8771590123201065e-05
aF0.062374712864827764
aF0.01677156639853239
aF0.016809497767036774
aF0.09438953940525607
aF0.017118353038022338
aF0.11468689140434485
aF0.10629308647807933
aF0.09187126547968116
aF0.212545040705026
aF-1.77713076339181e-05
aF-2.9112156656907473e-05
aF-2.5549649167011523e-05
aF-3.123808810112649e-05
aF0.2904544769175992
aF0.14879312018627822
aF-2.3663202438406472e-05
aF0.009493365108620644
aF0.019780898132979452
aF0.03473677349861992
aF0.1727588439639609
aF0.1118116117942618
aF0.18162589667889906
aF0.015282106673555784
aF-1.8674677290331232e-05
aF0.016682169740796393
aF0.14740767933100996
aF0.08616533185739916
aF-2.9261123404733524e-05
aF0.016588240195333004
aF0.04024376966319254
aF0.014976496357479885
aF-2.6965683630919557e-05
aF0.016669023905018676
aF0.09684958212422767
aF0.1745806110733108
aF5.0011720249543146e-05
aF0.01758598226788033
aF0.11150783892001703
aF-2.30464320289947e-05
aF0.017230730668825966
aF0.016883599220886225
aF0.017014632578464806
aF-2.1989668891553293e-05
aF0.01662019170637441
aF-9.432127567876591e-08
aF0.09641230546779456
aF0.01947167710579123
aF-2.381134111262284e-05
aF0.015077745768605766
aF0.017863576263817293
aF0.21551396407350065
aF0.08039531732653149
aF0.016966431260113435
aF0.01697965240842425
aF0.01682701657487451
aF-3.240060561582325e-05
aF0.01665810526890832
aF0.016907877917174297
aF0.016862949989691955
aF0.016690137493925672
aF-4.198961334633822e-06
aF0.016877293789830272
aF0.03173812157535938
aF-1.5600960606043657e-05
aF0.016826952827389885
aF0.017164070377183815
aF-2.582132698503159e-05
aF0.016100503428325474
aF0.017627836912206263
aF0.01660555264225083
aF0.01708443209813959
aF0.16511527616285404
aF-1.7125539113038712e-05
aF0.015437188557721804
aF0.07982466494405527
aF-2.572257083288676e-05
aF0.016556297087225502
aF0.07272058691094374
aF0.01696634494381044
aF0.1494269877516161
aF0.016669476218794888
aF0.016998656917902366
aF0.016894389501442397
aF-3.309741140133937e-05
aF-1.2847787902892094e-05
aF5.316030377677805e-06
aF0.0239758088804769
aF0.016978838666322105
aF0.01692392932200759
aF0.016908200197478962
aF0.016969700887931705
aF0.016892536689553594
aF0.017021973756071507
aF-2.3048545471748838e-05
aF0.16632934768865848
aF-2.412112273697531e-05
aF0.02431405026840361
aF0.01713952758209558
aF0.0169207138580294
aF0.016617069378979554
aF-3.373652974936192e-05
aF0.06147119996019468
aF-1.6994551701898786e-05
aF0.017531208419226285
aF0.15060703972716372
aF0.016126258833467855
aF0.017067143590173917
aF0.01675248747141378
aF0.016760551849463567
aF0.01691134817645068
aF0.09451765350835517
aF0.016978083494868734
aF-1.7578401693363332e-05
aF0.016640878197492714
aF0.016818896991436016
aF0.08104079005937548
aF0.01659432610895406
aF0.016680526267346618
aF0.01674663823362188
aF0.01667560154586445
aF0.016720242694139298
aF0.016903753164556168
aF0.016632968439338924
aF0.01707921879386065
aF0.017103700636232677
aF0.017010936219370887
aF0.15360624410196966
aF0.016995150813221116
aF0.016806199561298474
aF0.017028248358047282
aF0.01679191509124367
aF0.01663620921393738
aF0.01669187575183928
aF0.016762404424143007
aF0.016976729791620127
aF-2.2976152694198504e-05
aF1.33716776806736e-06
aF0.01673178279940135
aF0.015215372109177672
aF0.01768319875104085
aF0.16656761807501796
aF0.016175259024949096
aF0.016834298106669365
aF0.016928944137009072
aF0.016793038905547952
aF0.01697505210333139
aF0.01707883678324773
aF0.016585835052858044
aF-3.1411520498902945e-05
aF0.017076625218906738
aF0.016614710959032664
aF0.016721971945493852
aF0.01695968680291937
aF0.016555140491508524
aF0.011142065602260498
aF-1.3407935493425782e-05
aF0.016639276357079957
aF0.0167821623852622
aF-1.2058331043007797e-05
aF0.01674181055102153
aF0.09517323807719746
aF0.01684352847378845
aF0.01719363732237733
aF0.016769674915104726
aF0.01682975415253729
aF0.016687618198447662
aF0.014842209129890538
aF0.01771126266957479
aF0.01585616803212231
aF0.017598876054545798
aF0.017006257101365385
aF0.016910333907058206
aF0.011726219731508003
aF0.07683209783297418
aF0.016631136723787687
aF0.017055926544225386
aF0.016888394587873723
aF0.016474228070793018
aF0.01687198382342814
aF0.016765795819523976
aF0.01660519501552793
aF0.0159502201846613
aF0.017051039501516208
aF0.01686076405618797
aF0.016539911410315966
aF0.01662918376269129
aF0.01673215908488146
aF-2.9753397482235044e-05
aF-2.226213556610901e-05
aF0.01673507867486279
aF0.026225117366978523
aF0.016995529592085834
aF0.016825807055815822
aF0.01655745929292385
aF0.016919050154135196
aF0.016621382239863536
aF0.01658882187063382
aF-3.1363958054253516e-05
aF0.017208208178660644
aF0.016905114052578885
aF0.08115118737463067
aF0.0735126321722479
aF0.01667050723805108
aF0.01583417474467197
aF0.017271966758412027
aF0.01697723440064891
aF0.026795988158064166
aF0.017171110295351344
aF0.01703458813388048
aF0.01581372040307949
aF0.017637872531765186
aF0.0170666711521803
aF0.01687057509214096
aF0.016831091015828026
aF0.017004751188026912
aF0.016797167221207054
aF0.016926907654545964
aF0.01701353291669827
aF0.017008091068218434
aF0.017056249364234333
aF-2.43264807648913e-05
aF0.016443510627043523
aF0.016753324383143475
aF0.016923098502015677
aF0.016545347911953723
aF0.0169080166315001
aF0.20632825465046167
aF0.016581757679179798
aF0.017037847058216204
aF0.017114881992001063
aF0.016981234206815188
aF0.01680186138841666
aF0.016763844777002657
aF0.016875340922087645
aF-2.2373488347771087e-05
aF0.01769932650186501
aF0.01684531491324659
aF0.01689859880611788
aF0.016917169811899502
aF0.02657408669713268
aF0.01708221629268536
aF0.016884452072286837
aF0.01661741109222703
aF0.0168062107003637
aF0.016906933901795984
aF0.016855083868762666
aF0.016539931382793416
aF0.016910425101357873
aF0.01682281216689674
aF0.01671525089819159
aF0.016663478214928862
aF0.017007983368052315
aF0.016831691288336614
aF0.016821031179954815
aF0.01653353000932034
aF0.01664496971877405
aF0.01683234244807874
aF0.01678854360805948
aF0.01694806847651531
aF0.016961955456543887
aF0.017094692721622007
aF0.01686969263338778
aF0.017054469048084275
aF0.026939774759566326
aF0.01696178971197737
aF-2.887071265611496e-05
aF0.12399113732664446
aF0.016645055705839962
aF-1.2644256432103873e-05
aF0.016621324623482536
aF0.016791440219719345
aF0.01688281977451611
aF0.016777467565233017
aF0.016945383650469825
aF0.016811960960298133
aF0.02612949055370084
aF0.017098535482751753
aF0.026544565241402918
aF0.017089657225346055
aF0.016884417036763022
aF0.016864470529137865
aF0.016918376513002098
aF0.01686769565777846
aF0.016400951534085273
aF0.016872875210377725
aF0.0169540901970322
aF0.04337368526309948
aF0.016502676905333136
aF0.016964773291833435
aF0.1885862857708145
aF0.016797613802888467
aF0.01695035120683075
aF0.016954556878077565
aF0.01686262382282644
aF0.016819063301200643
aF0.016891892119665908
aF0.01681473429457636
aF0.016985161951689864
aF0.016965524515975883
aF0.019517136447358308
aF-2.66854809121142e-05
aF0.016795393166993744
aF0.017004147960578475
aF0.016633446228124793
aF0.01675367442296638
aF0.09816639890419543
aF0.01591340197430169
aF0.016943151767866205
aF0.016617039279399837
aF0.01683093901422561
aF0.07353800537124133
aF0.016700436374086802
aF0.01686152365311555
aF0.016831250573432044
aF0.016941926200926716
aF0.016813717502073278
aF0.016815354101361812
aF0.01669708247685131
aF0.0301121986443893
aF0.01713550430316868
aF0.016794864477009952
aF0.01689475327704537
aF0.01708905029657748
aF0.016850933358119935
aF0.016659962234118364
aF0.01675018984995713
aF0.016967278467883595
aF0.01691814487578913
aF0.01684082873947368
aF0.01696230829590606
aF0.017023852823527807
aF0.016852459359414595
aF0.016688341290470365
aF0.016789653259162485
aF-3.212547962894163e-05
aF0.017649374560932518
aF0.026212188030853234
aF0.016922286189267943
aF0.016524426654393132
aF0.026573362282242385
aF0.017092560659276224
aF0.01667609732882358
aF0.016761119261925916
aF0.01686406288443898
aF0.017187386145307126
aF0.016995124568756292
aF0.016861968051724574
aF0.01673918862438173
aF-1.6228660227657343e-05
aF0.017865298368192395
aF0.02510265760050734
aF0.017095072324831317
aF0.017182217330668603
aF0.017069799311026035
aF0.01687402197422827
aF0.016806294103603125
aF0.016882851914647556
aF0.016622403481066694
aF0.016837219592150454
aF0.03295581419005211
aF0.017042833336961216
aF0.016702543706853756
aF0.016769640534545882
aF1.3141420106332902e-05
aF0.017878475798323468
aF0.017045828602774815
aF0.016916474593551722
aF0.01667327561896048
aF0.026244988692129656
aF0.01747745912724552
aF0.016985457638460932
aF-3.2590380750097125e-05
aF0.017584117423262935
aF0.016869315906521187
aF0.016827409349595257
aF0.016661218139946588
aF0.016993459754226947
aF0.01681833102456398
aF0.016813731777308938
aF-3.1937805736959035e-05
aF0.01683301082765043
aF0.01694826387823678
aF0.016713048743146164
aF0.01671775405720277
aF0.017142978165847644
aF0.016868765418773357
aF0.01685902468209255
aF0.016861190038041762
aF0.016838822731048975
aF0.016821891051361337
aF0.016982653295065653
aF0.016936835134077288
aF-2.2212001648203028e-05
aF0.0167668022998666
aF0.01683741356080315
aF-2.7046871609481826e-05
aF0.016861851573220843
aF0.026019894844373503
aF0.017042227730363013
aF0.016771136212312854
aF0.01704756958047904
aF0.016994740766768768
aF0.016957096677598482
aF0.016983099416132852
aF0.016988013265503366
aF0.017044648287722897
aF0.017004464384531293
aF0.016865254323389145
aF0.016832332030958685
aF-2.73494458440382e-05
aF0.016650197427004354
aF0.016950200520529535
aF0.016921553889013285
aF0.016893383203942847
aF0.016756622414702438
aF0.027435069762422604
aF0.017015496074466174
aF0.01678847094441238
aF0.017065936121720693
aF0.01683749943088131
aF0.016931318711017607
aF0.016903973940614048
aF0.0167664700505048
aF0.016899202429367932
aF0.016828553172180793
aF0.07353412987090113
aF0.13364986904098108
aF0.18087891977801762
aF0.25837689614190307
aF0.2504294078698375
aF0.22412284373149793
aF0.03850367405128363
aF0.05517293425511571
aF0.2015160274493657
aF0.7086504444455164
aF0.1617342234005874
aF0.688570099713611
aF0.4186916991414291
aF0.22811434864080082
aF0.6906835384403243
aF0.1905568728476914
aF0.16830526606907936
aF0.42914804477895796
aF0.5492374900412615
aF0.737733376822507
aF0.2389940534676347
aF0.548675213268238
aF0.44021755143358643
aF0.17572664898935075
aF0.46169449710672206
aF0.2644676219701818
aF0.3059566727556784
aF0.4862480998799392
aF0.1524058636928869
aF0.07616381241154224
aF0.261144949308731
aF0.2563558143058291
aF0.3463168203112841
aF0.23850064463855336
aF0.12200209334388257
aF0.015915984220643775
aF-5.651856098687347e-06
aF0.006543770046365527
aF0.30057230096284115
aF0.10559683981740076
aF0.5112649491653634
aF0.27280584531681606
aF0.23350460459188804
aF0.09782382646715826
aF0.5821149350664996
aF0.7688682214060285
aF0.4066588389589514
aF0.21388806287571116
aF0.26778989467807346
aF0.14874586360948028
aF0.5500382112810001
aF0.25857251274963877
aF0.4109374756604671
aF0.17061427429729115
aF0.07851963702632547
aF0.2605984850635621
aF0.01599314191931489
aF0.45723742100217235
aF0.3659190602166742
aF0.34282181673068113
aF0.4235384950767562
aF0.6294514491672603
aF0.3897178184229131
aF0.7758986570561697
aF0.1216639190169988
aF0.218852912653281
aF0.42432756428247353
aF0.8423944391435372
aF0.5287898270555362
aF0.2294875149760207
aF0.740410120950366
aF0.33712825795099066
aF0.11985241665382818
aF0.3877726652360831
aF-2.7019939364603118e-05
aF0.5974865650201711
aF0.5379900975599452
aF0.7594809427569871
aF0.04052327958053592
aF0.04104692410500821
aF0.29056747270884387
aF1.0631355054552922
aF0.7815101933630428
aF0.014799123285665239
aF0.3170450436839669
aF0.545008060734947
aF0.39669094149608997
aF0.26820089375980505
aF0.42798811163021266
aF0.04367367448988091
aF0.41794270016856805
aF0.519504509471465
aF0.3296520820097668
aF0.5331325679411507
aF-1.937162776632917e-05
aF0.41888427651021676
aF0.23293111604680572
aF0.2614181535578437
aF0.5500737238589553
aF0.6229466350983741
aF0.6507265748376847
aF0.11647530852382593
aF0.5076548248168646
aF0.2736890070559741
aF0.2142478477272638
aF0.18657452429625465
aF0.07619667896151361
aF0.5444852581626853
aF0.07804875395935218
aF1.0458208303925751
aF0.6448571889308532
aF0.27148587818105074
aF0.15736115309266197
aF0.1881881725656731
aF0.7293175161585359
aF0.9517209246613083
aF0.31283131180382284
aF0.5721926406900071
aF0.04049269828214985
aF0.35999388972915813
aF0.2345748547153108
aF0.053662955734361084
aF0.1621635566303512
aF0.4628047305998102
aF0.3494910303389851
aF0.7686405047860108
aF0.11435271967526761
aF0.7136459214658926
aF0.8076265679980672
aF0.040224661936655526
aF0.6425375227293157
aF0.44796789022796046
aF0.6059080948499393
aF0.35533583088600773
aF0.28062749898719774
aF0.2807103463371625
aF0.31142933837270315
aF0.5856864998308979
aF0.11690556346297898
aF0.6732549291443686
aF0.08108555111773574
aF0.9288116740063881
aF0.04307798356980452
aF0.03859132906657026
aF0.6918662310129222
aF0.5220386744046208
aF0.05575317643056188
aF0.19331766656578742
aF0.6307919361027792
aF0.43338282988044696
aF0.6546833823072435
aF0.6127402285253551
aF0.8587936079305281
aF0.6558856974503127
aF0.36160419841981284
aF0.23340689588345764
aF0.7086969877627491
aF0.9173394710765272
aF0.7142152933479191
aF0.606078834747477
aF0.6533126380724612
aF0.5385535047922478
aF0.7326906029043632
aF0.6487454287877625
aF0.41667476191088193
aF0.09297659337542985
aF0.5015318634885642
aF0.21877774338330847
aF1.0076214222361908
aF0.01692367645182591
aF0.25292308751497883
aF0.14920928341536577
aF0.08208331673880043
aF0.653135720799233
aF0.07789983337761708
aF0.2693119901439198
aF0.14705129167686826
aF0.4647020190956015
aF0.5379990280890068
aF0.16075561423947926
aF0.26082134431641046
aF0.4642115258800117
aF3.7060890774043287e-06
aF0.45910201813280915
aF0.6638831214436283
aF0.8101929483550294
aF0.151120896194346
aF0.27964816595117004
aF0.07977678265503618
aF0.6627623981604764
aF0.5672242935334548
aF0.4985042747451396
aF0.5601414610868973
aF0.578285473231249
aF0.5019420091076334
aF0.32538028009296305
aF0.3802994705562459
aF0.6115161235294466
aF0.2340028270753729
aF0.11595434486734435
aF0.5412073201425089
aF0.8261316856342837
aF0.39294645912260506
aF0.2724528314430166
aF0.34896271964452863
aF0.13309460593672284
aF0.6648521642775691
aF-1.7093911149679286e-05
aF0.7815366125660566
aF0.37212614709307745
aF0.040421365486857486
aF0.4758751809745343
aF0.07783166794273289
aF0.20958658734187985
aF0.6751978923631112
aF0.2282479273210356
aF0.19368644410752145
aF0.196090162790012
aF0.1695523572550912
aF0.27562308138358116
aF0.07777389880101193
aF0.6008365046266286
aF0.6840639576327052
aF-3.221112351425859e-05
aF0.522252609920435
aF0.5205560012598118
aF0.4381041947900437
aF0.6596424283279072
aF1.154299175661635
aF0.2558711304552692
aF0.7305393389971306
aF0.7018136599656004
aF0.5244809032739939
aF0.9535791136894884
aF1.6630359544135134
aF0.42836403818504243
aF0.21043879845332114
aF0.7055517495303723
aF0.7651273997438253
aF0.8127523811049309
aF0.6980661576172746
aF0.3254750463106979
aF0.20218733276557543
aF0.585514225140511
aF0.47574954948927184
aF0.20824732214996233
aF0.1898226732620727
aF0.6604262957708116
aF0.14229139314619133
aF0.13208867760376553
aF0.6151183597612748
aF0.5132323422638692
aF0.15508013738870785
aF0.5694557252912493
aF0.7314177795384325
aF1.0144053590293605
aF0.6716710927849396
aF1.096442331998301
aF0.23050420222745283
aF0.771269859411579
aF0.19452549481318204
aF1.2084633126144624
aF0.2299093391173117
aF0.6373536841370919
aF0.03287965482540489
aF0.3267412924034363
aF0.5676606727372149
aF0.5087049640319328
aF0.13115342142693587
aF0.169742913874527
aF0.6129678920386308
aF0.19468285204427982
aF0.5013402560817024
aF0.06487330210782005
aF0.40515719341002
aF0.5086133958126422
aF0.5662679425564625
aF0.2415095260539375
aF0.6882310564306025
aF0.36575234099311205
aF0.06647826721570782
aF0.4745449724918216
aF0.6829542009376479
aF0.3472744901991702
aF0.8132099221817901
aF0.6508968666675283
aF0.07702776343877815
aF0.9562541660389168
aF-1.2892664825958633e-05
aF0.42249264300336975
aF0.17160110748870494
aF0.15195098130352136
aF0.1296246538641581
aF0.3171513559859154
aF0.09443530125742194
aF-2.2725032716941485e-05
aF0.680955459737715
aF0.5791710923353124
aF0.3893678544992567
aF1.2456605314681761
aF0.24611114803650214
aF0.040393251929411456
aF0.09403266864556281
aF0.24009931276007146
aF0.36290864102431675
aF0.9567348762143966
aF0.3437322709724575
aF0.10274410284451596
aF0.1080922086490661
aF-1.575891762595205e-05
aF0.16857507126770965
aF0.6561116639092242
aF0.13190772915101112
aF0.5943466602507215
aF0.016237134618557914
aF1.2568653816529154
aF0.15633473016043054
aF1.6933755682764264
aF1.0242283608269913
aF0.1544441986401468
aF0.6359143559539091
aF0.7763452756576097
aF0.9966242197111916
aF0.3478881775827847
aF0.6800593166028368
aF0.9696496757474673
aF0.9289026117902446
aF0.24064542059951943
aF1.1542278506372075
aF0.4102618727706666
aF6.132574108974609e-06
aF0.7106256822701686
aF0.13434653028470844
aF0.5864760177299368
aF0.5138623634303001
aF0.23337369214998693
aF1.1535138551096407
aF0.5352127006683909
aF0.7548343701755535
aF-1.0920515343570969e-05
aF0.579435053567928
aF0.26541614871372543
aF0.14152068865543743
aF0.7332591600999976
aF0.014392289036171402
aF0.37225686032569083
aF0.0817766071259527
aF1.7966617734170685
aF0.486175330921248
aF-1.3666803527989657e-05
aF8.512167500196455e-06
aF0.5675585574582152
aF0.3620411607433258
aF0.3729352868075657
aF0.3800357944055821
aF1.0795941057749108
aF0.4648568630134702
aF0.3276666113802733
aF0.3428095130856743
aF0.7073877902877639
aF0.6395801660381215
aF0.27091653044900665
aF0.6361069685300538
aF0.1303655088610549
aF0.47355714239387137
aF1.2142687443447486
aF1.2303532191939448
aF0.14039933806245797
aF1.080469668904927
aF1.0156788575865785
aF-8.775638894231719e-06
aF0.15323796369791776
aF0.27666598958445654
aF0.3050233146004975
aF0.5556233649499664
aF0.4012626993922779
aF0.5820218533298691
aF0.7300503246544818
aF0.13181952080230186
aF0.29283483978098657
aF0.4373374567283652
aF0.9101510743045549
aF0.2322395608497203
aF0.5596175124948228
aF0.5511021052995271
aF0.24130024887196067
aF0.7381219564357089
aF0.9948573604049531
aF0.6882552057031823
aF0.11594244919595775
aF0.6113933159365867
aF0.5117163494753241
aF0.42134340678297333
aF0.31691214771781206
aF0.5672518028918749
aF0.7772129328112096
aF0.9038487687387433
aF0.9583233148302819
aF0.06855037575020573
aF0.3400031046022143
aF0.025328452718111016
aF0.29033008635974156
aF0.8377786895216301
aF0.32074831054751884
aF0.6724232703534501
aF0.2783832206558223
aF0.6532072824874509
aF0.3144053253724248
aF0.41232374894006174
aF0.4728213736375544
aF0.6209614832476746
aF1.2133815282140925
aF0.4402707922307503
aF0.77556502266631
aF0.2918256844288307
aF0.9675169702368729
aF0.18077673229472202
aF0.9989301377250075
aF0.325787648846962
aF-2.0012471518615627e-05
aF0.3222034561231095
aF0.047058358929703115
aF0.20340346145883093
aF0.2515744484773088
aF0.6802148622644468
aF0.9199232325237574
aF0.16779023379299485
aF-3.0621886522474995e-05
aF0.6444553589788566
aF0.7815303529917119
aF0.3401677194911574
aF0.48749555328061245
aF6.4132793835547375e-06
aF0.2310929560359245
aF0.5728764900263359
aF0.5276680096175115
aF0.5983352061945402
aF0.05449103283301682
aF0.5092842214853457
aF0.15237569386460637
aF0.5637743016479835
aF0.2591221702656239
aF0.49200644726785914
aF0.6847915776047473
aF0.13087578852219517
aF0.10659673954258686
aF0.6523970051119017
aF0.9663221786704246
aF0.5504152181695132
aF0.0820863341438276
aF0.07184744673588117
aF0.41366258009611956
aF0.3095576519049863
aF0.778719732812903
aF0.23975020904160882
aF0.390067455103138
aF0.1397165862700933
aF0.5546310177611988
aF0.893392074069912
aF0.18760547139757744
aF0.07641508837790889
aF1.0962757289753418
aF0.7205560283399346
aF0.7815569309519041
aF0.08773269742919831
aF0.4943854282004976
aF0.20212811066766356
aF0.015305341907934089
aF0.3969722052063127
aF0.17985365619605886
aF0.10257963093421862
aF0.17026828116068282
aF0.7661413115415772
aF0.179533465642566
aF0.4162818961084409
aF0.6752253932993084
aF0.37436620349858174
aF0.6770261634334562
aF0.37508932377289206
aF0.09291751732383702
aF0.5687631193181129
aF0.4247803257038085
aF0.2577163570812635
aF0.7947606446139912
aF0.3942933806412805
aF0.59478723713279
aF0.7745675075103211
aF1.0403029543003237
aF0.0667683383952502
aF0.7460410164796918
aF0.13081519464572322
aF0.094717581036174
aF0.44900250275643394
aF0.2558961800683561
aF0.014520873600945894
aF0.7096437889678735
aF0.547474810894887
aF0.7281440603394738
aF0.6889459401355147
aF0.7852591961345152
aF0.8116484135137414
aF0.7487718817548341
aF0.6615395677828837
aF0.47514099057448567
aF0.06646316172023958
aF0.6893280349905586
aF0.6133295855419547
aF0.6765740742359982
aF0.2819317942203492
aF0.38913277091350507
aF0.8367162797720091
aF0.01758236068885166
aF0.20856708410382163
aF0.6415936746358661
aF0.5157959537317782
aF0.5689652548224515
aF0.06641541948132579
aF0.5998496390377261
aF0.3528338121057688
aF0.663874346152431
aF0.6603669749856795
aF0.10376328939702484
aF1.0623775846596573e-05
aF0.5364933222231465
aF0.775136700077081
aF0.3647451556277086
aF0.454590107648305
aF0.5227052515498034
aF0.3550772263258528
aF0.008561426606935818
aF-2.4891592698139675e-05
aF0.4766594130989228
aF0.2715905251619266
aF0.11683402075201554
aF0.5531409440026795
aF0.07950935145686167
aF0.19486433724649022
aF0.7630426397977637
aF0.392161389473924
aF0.16922999407866346
aF0.497823083822003
aF0.6497272588028706
aF0.08489685513140266
aF0.12489333731493923
aF0.7348344543380589
aF0.47982469903300773
aF0.29095292871333234
aF0.3902415508495829
aF0.6311365208477113
aF0.7228865274286771
aF0.3285335046510891
aF0.5516853426034198
aF0.9167871619820791
aF0.675271723732584
aF0.6314383613437773
aF0.9594323525972603
aF0.5994017265588236
aF0.6592203590679335
aF0.6561534629715204
aF0.4963157262074471
aF0.34116979804140435
aF0.38735735309812913
aF0.638278659503269
aF0.25599078001314
aF0.6105153511794077
aF0.7083830780175746
aF1.119423958167265
aF0.4078510037411367
aF0.8479506350359727
aF0.1401538833684297
aF0.2933108457257787
aF0.8046204813983135
aF0.27050349063347845
aF0.3606505967586937
aF0.896011171342816
aF0.015443240010568182
aF0.613197968168119
aF0.5758502795343139
aF0.15233816472323491
aF1.646964570765391
aF0.13165533286831055
aF0.8275803719264898
aF0.4409837017335154
aF0.598912434303362
aF0.7630397477799034
aF0.42659524046142794
aF0.6854739994427619
aF0.46484185630255404
aF0.6505967266121879
aF0.6870959105749028
aF0.46430344231342113
aF0.5970879369890634
aF0.1809702204359973
aF0.4344542005426195
aF0.8224087439160193
aF0.09666272208801496
aF0.2472084506581882
aF0.7977183509115227
aF0.42043896315203355
aF0.6418253014122999
aF0.37432979861827986
aF2.066042995707562e-05
aF-1.2444998282568065e-05
aF0.3720792511458617
aF0.289422282034689
aF0.0646771034584086
aF0.26030472075248356
aF0.9610215565640408
aF0.7140947091130778
aF0.017189541242163653
aF0.40914502946170916
aF0.3750838945042343
aF0.3633555842184646
aF0.6421394626921346
aF0.12352388480556975
aF0.7654475620544718
aF0.6473159487156033
aF0.7616684917012253
aF0.4366660597858911
aF0.6536986937195355
aF0.14476287734075788
aF0.7121177893041222
aF0.26374429068915983
aF0.5021203455787826
aF0.3190971254053663
aF0.763451450566258
aF0.7666100269781264
aF0.3858535987226963
aF0.24294219901189296
aF0.677750628842118
aF0.6458066213509817
aF0.6334308422691812
aF0.1281709338642858
aF0.4362383703601811
aF0.7534784951898139
aF0.5771634395765677
aF0.512822895759435
aF0.8213386000790472
aF8.751892591485344e-05
aF0.37728668885884
aF0.26942624534256154
aF0.9084268833034548
aF0.42265157451714463
aF0.03843096714373795
aF0.2704979803194547
aF0.3424923292944735
aF0.674398098547103
aF0.6251990048668037
aF0.6552294608637239
aF0.7885010004197199
aF0.29291722641149986
aF0.5233780217016886
aF0.919677487739611
aF0.7655100101632621
aF0.26670102875759705
aF0.7013534465576416
aF0.5065601119381005
aF0.772716554281967
aF0.6797062552395876
aF0.5616166281172466
aF0.4714168605712583
aF0.37295522906038414
aF0.7678800804212518
aF0.23642943972415553
aF0.64562482322237
aF0.7246613676855747
aF0.06839523457101615
aF0.5803385211374388
aF-1.6708847982549457e-05
aF0.5007426998682516
aF0.6623441710624887
aF0.33742987460116014
aF0.47246197567343673
aF0.8168480861406038
aF0.14695490243441833
aF0.6432725724941388
aF0.678787838436409
aF0.06782171629773037
aF0.5793055213791427
aF0.2578859932373567
aF0.31661735638699895
aF0.19649209582976823
aF0.702406692763025
aF0.44870981026987566
aF0.9286295224992549
aF0.015382581840786447
aF0.014461823046715505
aF0.231917070575689
aF0.7962869445942431
aF0.3851089706241484
aF0.45151531087300967
aF0.654666225371789
aF0.21093347413411978
aF0.19848121920148376
aF0.329860195470399
aF0.640958639255047
aF0.4387983699928766
aF0.06617854431568215
aF0.2575976481333626
aF0.25712623923028444
aF0.07627574321857056
aF0.6680314510534449
aF0.1963125914491668
aF0.4071106639027109
aF0.330041242214151
aF0.27013624188828267
aF0.39152547789175784
aF0.6324696691295393
aF0.5076926163342832
aF0.6454012587913676
aF0.1716223471412479
aF0.20881942662311515
aF0.7659312030336176
aF0.25599625226123335
aF0.2213775235370532
aF0.5705275951360336
aF0.8840967199969181
aF0.8699328779712476
aF0.802249680250565
aF0.32139599352951453
aF0.885549656924137
aF0.6184205818569803
aF0.30031272633250294
aF0.8816909879933741
aF0.13174673516442725
aF0.23768383238103485
aF1.0519310217584636
aF0.2577016415974098
aF0.13150956906387146
aF0.0034845064638768797
aF-3.0878081469509766e-05
aF0.1315263396353208
aF0.6941004881495765
aF0.7723003989258288
aF0.3874747318272944
aF0.2549591770688542
aF0.5514502133155661
aF0.49468869257899417
aF0.7998423196372082
aF0.6532603521639833
aF0.6721482557712419
aF0.2834816794229371
aF0.15999273330140173
aF0.517781818585132
aF0.42237509116311367
aF1.3245538957339344
aF0.16761803196353453
aF0.6539566094292342
aF0.4814582523459028
aF1.9858556887353274e-05
aF0.6625546366720529
aF0.8541103953562441
aF0.3830755511102417
aF0.5937485436243435
aF0.8711995416454466
aF-2.776375920676699e-05
aF0.7586715707215546
aF0.4678381561672902
aF-2.041190884360944e-05
aF0.8077700231068996
aF0.42036783963048796
aF0.5103379883234385
aF1.0865088474404239
aF0.0669020669317586
aF0.13142617861715067
aF0.2492399054676313
aF-2.8383152825384173e-05
aF0.6990026443595809
aF0.6835200029650972
aF0.19860331447736934
aF-1.0950166310141896e-05
aF0.1314779676024478
aF-5.83319700497853e-06
aF0.5188718796363618
aF0.7075032927633722
aF0.19554658167805172
aF-3.285740241443236e-05
aF0.16041490599332286
aF0.2985098744974435
aF0.3887680414600747
aF0.44969498307755584
aF0.04099424747314506
aF0.5085078301628454
aF0.5042753980660422
aF0.729462543384193
aF0.8868721231407726
aF1.0075587876796992
aF1.0669954276622904
aF0.066820247976358
aF0.09735567984953652
aF0.2527997758833007
aF0.038760616027005756
aF-8.553648150666504e-06
aF0.6818655948008807
aF6.112114278700176e-06
aF0.20139871733129633
aF0.20666949788848665
aF0.8403661649891752
aF0.3192094898696225
aF0.47778811308791846
aF0.13329738008843517
aF0.18308037569059943
aF0.3220842982951093
aF0.07618915929091852
aF0.7307235192938677
aF0.859861167421653
aF0.04107405868630298
aF0.7575913524788849
aF0.03861191757930005
aF0.11485149696188302
aF0.15100425177033472
aF0.7188848756739215
aF0.744170181863745
aF0.32139886263090744
aF0.5274813661566649
aF0.6749562385020615
aF0.8466294817751976
aF0.21824639013157343
aF0.18907695158716242
aF1.0881949483879514
aF0.16566176530957444
aF0.2631624516077249
aF0.15371743640191093
aF0.6839554747259049
aF0.7031073329266522
aF0.11060697724473467
aF-7.99102399895446e-06
aF0.3194084769318186
aF0.7499055992411683
aF0.44060954713806844
aF0.7842292971873692
aF0.10242261524809448
aF0.8134875826770069
aF0.5755833426819144
aF0.13218208215707294
aF0.610242554042153
aF0.36503131012836487
aF0.212483972097115
aF0.24447329194887946
aF0.49096307885904933
aF0.2771196552081383
aF0.042812123955163095
aF0.1540018374820602
aF0.6473669678349507
aF0.6007069752956742
aF0.14044927124604412
aF0.7256496076361154
aF0.1655832372866124
aF0.8029779605617611
aF0.5998752259014655
aF0.7632382684893697
aF0.06655161721802738
aF0.3547767677820981
aF0.3267412820763256
aF0.8533339465115359
aF0.7214336442544109
aF0.6742621429701803
aF0.12297648809777773
aF0.31597214702580967
aF0.114066606738084
aF0.8736561509719518
aF0.7548704734676859
aF0.2542713020170395
aF0.8357838545191814
aF0.7620086188928163
aF0.03880151863479986
aF0.7238196394025285
aF0.9226979076915107
aF0.8156292239771599
aF0.5968319390204702
aF0.4456107458892786
aF0.967575269941209
aF0.30542746505195684
aF0.489349292510489
aF0.5032642660260449
aF0.8187113443359908
aF0.6104242506741797
aF0.875607962232694
aF0.4358543443063918
aF0.7966449580041144
aF0.15166140086151048
aF0.08866868399762984
aF0.15443191776816745
aF0.22760452963065925
aF1.041417433300683
aF0.9882320046012141
aF0.25734251696899557
aF0.050468754284180406
aF0.13539035741666305
aF0.6576602431278493
aF0.1814396083629699
aF1.0306754556389688
aF0.1832959760708568
aF0.3608205889707561
aF0.7549830679192824
aF0.31466493079090574
aF0.35008669439694895
aF0.36844166478541185
aF0.7063255541877163
aF0.7288280068148327
aF0.28272770695804805
aF0.01552584918349842
aF0.14485812629522243
aF0.5010981573533422
aF0.6765737375182468
aF0.4332859178600965
aF0.4348325079211155
aF0.8363091565305649
aF0.33362880801808226
aF0.19796070455768966
aF0.38073666407381523
aF0.15677723310023461
aF0.5956106500144109
aF0.19884467986797238
aF0.8456546744529523
aF0.3109274276326013
aF0.5052796927101078
aF0.5583932218395375
aF0.523481475888794
aF0.26805783463421307
aF0.6693702062320241
aF0.4949184175675829
aF0.20674665813311632
aF0.6858024414471982
aF0.3795938849431342
aF0.6391277811524394
aF0.3338629864125253
aF0.4628578257504983
aF-8.287241234583576e-06
aF0.5206846266271148
aF0.13473670490082945
aF0.8784177390840129
aF0.5386342915686884
aF0.5574960128210362
aF0.5251509079518675
aF0.4460951725219071
aF0.813842236913525
aF0.7833825710088327
aF0.6729675214736082
aF0.7964966860726883
aF0.521971711544801
aF0.5791229279173278
aF0.6769556813282351
aF0.7885478175237299
aF0.8229380087716902
aF0.47535712135566355
aF0.04506785911223865
aF0.24392863397346076
aF0.15754591594054723
aF0.7351875112487067
aF0.7341909704265621
aF0.8117896087431027
aF0.18083225576208806
aF0.13117038266382863
aF0.0743690052119379
aF0.21566474143368364
aF0.15173599238556035
aF0.22911571394000818
aF0.2461311185158368
aF0.6484887811341871
aF0.6165267688080354
aF0.54071220254322
aF0.6470094318817865
aF0.5866153655249433
aF0.5164908751397665
aF0.6674928648645198
aF0.6810619409360226
aF0.6531538607911131
aF0.28663615014128974
aF0.7670343777756821
aF0.8212985762284402
aF0.6602082194618792
aF0.5319259414672128
aF0.7647367245329599
aF0.04131637702905211
aF0.2665022695990191
aF0.44610831548926244
aF0.4883272526875837
aF0.8463806907229623
aF0.20658051196540672
aF0.5239745465390899
aF0.49115358329119685
aF0.0065750537044340085
aF0.014932152455801262
aF0.7833150249332737
aF2.751221497510059e-05
aF0.5374599460125862
aF0.3947138401630741
aF0.1815522523657438
aF0.6571835711555192
aF0.7243764805961037
aF-8.28479788994585e-06
aF0.2684624861417575
aF0.7327822944155744
aF0.573541984397929
aF0.7819422651636403
aF0.05609583220711256
aF0.8439239465837343
aF0.22687901250389464
aF0.11417673415558172
aF0.038441288354659875
aF0.23742789350832938
aF0.1387588563675317
aF0.7909900833556875
aF0.810438511712805
aF0.3130420613126188
aF0.6872842335624165
aF0.06475224106940614
aF0.6552270292276976
aF0.0976539715753999
aF0.577820072134458
aF0.7964310979496831
aF0.9463341315576632
aF0.5859197971397077
aF0.3057973490761041
aF0.14101761017964298
aF0.32844261036317945
aF0.7930446873415704
aF0.8092854795658777
aF0.38978784418712564
aF0.7662141325159246
aF0.2063001067610486
aF0.24933644527865972
aF0.2955200788743775
aF0.4433744321398656
aF0.6705412885164606
aF0.3197221056927293
aF-2.5215817829327136e-05
aF0.6150471998437648
aF0.697466423706592
aF0.7087639020773033
aF0.7902162551857383
aF0.6698535607857581
aF-3.109476064366845e-05
aF0.7970117626049626
aF0.7682518747379579
aF0.6884625185637483
aF0.6035932356444826
aF0.6060882827987828
aF0.26432839892086424
aF0.2011406716595867
aF0.5851006699131407
aF0.15131886627866464
aF0.18722952533084358
aF0.07551489918340604
aF0.7942373575338451
aF0.7080602041789934
aF0.23271745907555852
aF0.7216103928542124
aF0.30106656931182574
aF-1.6725441894571702e-05
aF0.6970022615062015
aF0.4040041295472174
aF0.8852692844782721
aF0.8145012303491614
aF0.03838005056996652
aF0.11740085938720934
aF0.1419176719996651
aF0.6229009355049056
aF0.3600017954829977
aF0.7105766578127404
aF0.6913482202059718
aF0.7078199602776487
aF0.7735033183240336
aF0.2651072280106641
aF0.01426296127417448
aF-5.2552015983309275e-06
aF0.7989110076671406
aF0.7506120281497322
aF0.29870552522212224
aF0.7072961842670318
aF0.1578014401507688
aF0.3330192708949471
aF0.7628031815258742
aF0.8607030874226989
aF0.800862723227747
aF0.10959363880440476
aF0.43707012131875445
aF0.5206919051723573
aF0.4630186530219178
aF0.4379679377438386
aF0.041411726100217816
aF0.23016615281071484
aF0.07637924822652753
aF5.7007864599167846e-05
aF0.391799058840379
aF0.5775599605917443
aF0.6480925620722844
aF0.3902178595328527
aF0.549983630575209
aF0.4417069053232545
aF0.7577213279200476
aF0.8970311908614299
aF0.5602003613111246
aF0.3282505100966029
aF0.15224290798286244
aF0.49284303544168173
aF0.773796947092952
aF0.1902704350514357
aF0.6590409502109811
aF0.714371478356342
aF0.3047890020841568
aF0.5751263306862202
aF0.35960011889250065
aF0.7117692490838077
aF0.6094562466103235
aF0.6674973822881425
aF0.48988706662566894
aF0.1516257594600643
aF0.1623305791636409
aF0.41268422691787965
aF0.15238173595189508
aF0.937139735910316
aF0.3112173038733199
aF0.7886919735254647
aF0.6517524828012324
aF0.343172486166341
aF-8.627006237382773e-06
aF0.25042605236215554
aF0.04960852911090319
aF0.3331768318336681
aF0.3200511032949631
aF0.8309466850619924
aF0.4527303380251553
aF0.1537811973924632
aF0.24691389404554442
aF0.8092214750303999
aF0.5010544895512492
aF0.7646105505276002
aF-2.7370430560225145e-05
aF0.45607322441401754
aF0.7008409612153721
aF0.4999480397302407
aF0.0744639955348978
aF0.11862059500296018
aF0.3353195978515293
aF0.6740997211114657
aF0.3183781656451665
aF0.7917364310042578
aF0.41841800475041335
aF0.5536027738155398
aF0.2933677705127131
aF0.22534802405614895
aF0.14541868124413337
aF0.09168158626025003
aF0.4085344390561141
aF0.4819273896594738
aF0.8061809252039867
aF0.2553426222945503
aF0.6857897282288006
aF0.18101225615991368
aF0.1692556522952997
aF0.4856619275626377
aF0.6812733864220326
aF0.5639446645593384
aF0.22699765050645526
aF0.482572438803194
aF0.8282602997309407
aF0.6293227595576969
aF0.7854568506447013
aF0.5262651696388723
aF0.48679113629436443
aF0.2595271434191271
aF0.7254888486321529
aF0.8992992837968035
aF0.6906303540261742
aF0.6958171659454773
aF0.5420777503998666
aF0.48541293351983983
aF0.33454298118144665
aF0.15376973793733395
aF0.6708329718758637
aF0.7793316518932754
aF0.07822201721143207
aF0.7435171511913725
aF0.7781243756173475
aF0.4099778342105491
aF0.15117514210074567
aF0.9389788378165624
aF0.6019134675902569
aF0.22675539850933424
aF0.03897585907698087
aF0.8311045600695923
aF0.2559865794336189
aF0.14491848439307464
aF0.5502485968014224
aF0.22950612573470774
aF0.7800230600454525
aF0.10410457240430704
aF0.29191596819436505
aF0.46811275207753855
aF0.14343239127113572
aF0.7731576709771937
aF0.11412967228891491
aF0.3919572147902928
aF0.8796904272806896
aF0.7689839477701428
aF0.6960364902138623
aF0.052194949030294424
aF0.3460109767667663
aF0.7330265799302862
aF0.039027580014913354
aF0.11743936969630964
aF0.3665900578383696
aF0.35701884080921653
aF0.666369845766769
aF0.7202904500840939
aF0.47425139923062165
aF0.6334602852661471
aF0.22302977977912253
aF0.15981763408297
aF0.634161247216678
aF0.8068852242227367
aF0.7160778753355501
aF0.7556374459077948
aF0.5070695841153401
aF0.21313927877774663
aF0.8251495020270307
aF0.8314760554708878
aF0.6806877040047099
aF0.48939923251207196
aF0.7519342454360127
aF0.39592029537481643
aF0.36054131314012405
aF0.06677479305910738
aF0.7700261411917695
aF0.06640602834104525
aF0.038544428847453904
aF0.7746053843868776
aF0.4257986858917948
aF0.25699418197599044
aF0.26728903973250295
aF0.3031300223847344
aF0.5031385692246424
aF0.9044579236757668
aF0.5142830520167916
aF0.25769920829014126
aF0.2937369571653825
aF0.756048645475186
aF0.6431998140954338
aF0.8038880138841074
aF0.03632889898962155
aF0.03804076508113052
aF0.3007063977250528
aF0.9318728616872032
aF0.0972358540541487
aF0.7963675300683626
aF0.04303192418873136
aF0.2270764336043265
aF0.3987673082890777
aF-2.7304725965571208e-05
aF-2.7376719439864416e-05
aF0.24924683427278627
aF0.7253498401042924
aF0.2535699730719623
aF0.7088483599070279
aF0.781271502748135
aF0.07391509081260361
aF0.016807798778876393
aF0.3889249563438679
aF0.11370439166958013
aF0.3152720917884837
aF0.1663374938450164
aF0.5966860616176026
aF0.6028923808023765
aF0.26227950482353934
aF0.4437725851787895
aF0.7599391749215556
aF0.11222037845019273
aF0.09177262548412202
aF0.7264553218576166
aF0.2775824133550575
aF0.6843231245039871
aF0.18826993267229186
aF0.2076283926794913
aF0.7393931697657403
aF0.7547888373171681
aF0.6833130436639467
aF0.6374095159426769
aF0.744662040991058
aF0.5370206211028918
aF0.7577863376335912
aF0.7717682221582383
aF0.4654179123742024
aF0.5178926168777718
aF0.7389540607507468
aF0.23852979772563687
aF0.08280681724043681
aF0.19600534330293584
aF0.5118160685789768
aF0.05971544949198959
aF0.2563754786286898
aF0.06299450753830715
aF0.7845522033569985
aF-8.60774152755539e-06
aF0.884473870378605
aF0.22913016722372515
aF-3.084872247649528e-05
aF0.8323721354936446
aF0.6640585078684595
aF0.4854483447602873
aF0.5347126152102257
aF0.19998122361291548
aF0.22188208537045195
aF0.10235785548108867
aF0.8141587347009094
aF0.12783588899412957
aF0.48633986240883287
aF0.7835224378118717
aF0.08339493353387706
aF0.37796525748084253
aF0.8308889726186832
aF0.447911017407868
aF0.4265902303251976
aF0.11978802816742684
aF0.8330404541726719
aF0.8269768299093898
aF0.7595772167205967
aF0.5437650591885057
aF0.8356903556008244
aF0.6300808427171236
aF0.7793257729263958
aF0.8079524659487722
aF0.931592952048514
aF0.7512876697243223
aF0.23630197181780455
aF0.7240178983941181
aF0.6764229158196291
aF0.20809184721353313
aF0.30546056256461895
aF0.038733512789497215
aF0.22387198061995894
aF0.25482208238570836
aF0.742415823686589
aF0.7781339650230841
aF0.733011807762467
aF0.2262969852277461
aF0.25383039947767516
aF0.19759889484559157
aF0.709434382800854
aF0.19188240842374693
aF0.7102137663583723
aF0.11781584937920586
aF0.059504960065607015
aF0.22592327103056498
aF0.05486960529768048
aF0.05563992841994381
aF0.1953638903478372
aF0.2255357457585796
aF3.26842746192213e-05
aF0.2705875418708974
aF0.33236175375238997
aF0.22538608476275668
aF0.05476328739304126
aF0.3206367883970449
aF0.13310820431559822
aF0.21108652283587004
aF0.21822947102644363
aF-2.3292796234031243e-05
aF0.13407116203690572
aF0.26230485002617154
aF0.24956461405535846
aF0.7482617466949741
aF0.9288151133479463
aF0.0163445603831347
aF0.614484879573475
aF0.0794829727191746
aF0.33441330195405383
aF0.2590659696710662
aF0.6760781547115653
aF0.3357460674518964
aF0.30295428842706373
aF0.3473102926397238
aF0.7271089580243237
aF0.1438005940450635
aF0.30423444755826434
aF0.7529638357191937
aF0.4214991229841245
aF-1.1784029846140243e-05
aF0.21708894014004887
aF0.9598968082020654
aF0.6124001315594461
aF0.80505921590894
aF0.2840675963862087
aF0.04104001640456678
aF0.2727262124198142
aF0.7039041921548304
aF-9.08156711565411e-06
aF0.29074821130301354
aF0.1176022554334657
aF0.7930377699751903
aF0.038490163505274566
aF-1.8864509440774668e-05
aF0.3981951097997425
aF0.6909643634266631
aF0.8222436192702895
aF0.14398679375959667
aF0.3212700870138572
aF0.5143969356409137
aF0.15220814887039502
aF0.11333524862799527
aF0.34549164367707963
aF0.371110375617417
aF0.18997076204407826
aF0.9595533983998581
aF0.6023332820971605
aF0.8287635409484091
aF0.13334147160561827
aF0.9163851866544688
aF0.4992881614870819
aF0.03842042885126684
aF0.7176898379606431
aF0.8448129924072574
aF0.7739184642099715
aF0.5124884190515981
aF0.7944680919552227
aF0.5119154258147831
aF0.6839301837712477
aF0.37533573923560226
aF0.7186840510187302
aF-2.6560021360921837e-05
aF0.06680066411983532
aF0.5031916814509092
aF0.015747591201275224
aF0.8147522965700627
aF0.7901896712953009
aF0.6783101136410594
aF0.11416536952585599
aF0.44312120760988893
aF0.4961736328092461
aF0.7854204041379655
aF0.7238902241696339
aF0.0667283563194121
aF0.4598013524023603
aF0.5277312925842423
aF0.27631788339573493
aF0.48870052347610393
aF0.7996380923784021
aF0.7628832778240859
aF0.2869030463726938
aF0.78050387320136
aF0.2566446710649961
aF0.6598745170271596
aF0.2976923562756557
aF0.6597546161079335
aF0.19749279410116172
aF0.19411168797041656
aF0.6787038804623706
aF0.8196296386418309
aF0.18358027089926443
aF0.5702695641051974
aF0.7456326022517485
aF0.18749064555528294
aF0.7958771887214109
aF0.4628717664533193
aF0.1916350317461304
aF0.7895284157825264
aF-1.2159394864319495e-06
aF0.8021288449948667
aF0.688852433788774
aF-7.417804917420057e-06
aF0.3829724475684393
aF0.7341051936018173
aF0.46886818586472057
aF0.6396805820092402
aF0.6042202179304512
aF0.4785608902497116
aF0.3689920088194305
aF0.6571736661960781
aF0.8279132287068038
aF0.0662070655071818
aF0.48653401303096366
aF0.17910960710770985
aF0.03659802824283398
aF0.41613805679396076
aF0.36384637296715505
aF0.23048348417409725
aF0.14358194820857229
aF0.7129674577809588
aF0.7069061217711865
aF0.4204626433229217
aF0.2639868385240862
aF0.22399013697111902
aF0.1800702125949405
aF0.07632916793744471
aF0.6330082412034161
aF0.23462335938375478
aF0.2977198648951056
aF0.7427334007958715
aF0.517180318085499
aF0.7513007776990426
aF0.9281133061901525
aF0.5982256260231535
aF0.5318921030555197
aF0.07593134834317716
aF0.2574851449059423
aF0.4090960996951565
aF0.8275539208203493
aF0.13223824190887523
aF0.7580730917487122
aF0.3516996138210211
aF0.6656280075749912
aF-1.5783300121530175e-05
aF0.6034855265530465
aF0.7633083363950952
aF0.6439825734337612
aF0.2082658936698567
aF0.14375896698210244
aF0.6156228561332409
aF0.8044693849996798
aF0.5903356869882379
aF0.8389720386050525
aF-2.6983210102748956e-05
aF0.6904806422169587
aF0.30953969760201616
aF0.010821910905465248
aF0.4405257030346159
aF0.6984980749681471
aF0.829764533268063
aF0.07619625942609165
aF0.23752406475720456
aF0.6596407634589334
aF0.4336690777712282
aF0.5996713881405502
aF0.5863348487495652
aF0.8126666033723642
aF0.42972402070725524
aF0.7690089982532702
aF0.5890001829096119
aF0.036432812408147885
aF-2.6986681132434853e-05
aF0.7451225693691925
aF0.784788567934811
aF0.10062185045402616
aF0.7682070986524665
aF0.18929688674908984
aF0.2352378241900266
aF0.24653789199139275
aF-2.6835061830876583e-05
aF0.3349006361769593
aF0.1976374231882998
aF0.19939539300857945
aF0.8076773478106207
aF0.2623778729940449
aF0.8880654284561449
aF0.34489502603750344
aF0.5223496051846328
aF0.01618520908651666
aF0.8128361989756576
aF0.35787786215337425
aF0.6732168522097468
aF0.5865412397544087
aF0.7075788824258424
aF0.9303666277622082
aF0.5276942819141617
aF0.7530242435527073
aF0.5768100946348995
aF0.6702303495179005
aF0.9134812346322625
aF0.2799120605693002
aF-1.4923032979563544e-05
a.